;--------------------------------------------------------
; File Created by SDCC : free open source ANSI-C Compiler
; Version 4.1.6 #12539 (MINGW32)
;--------------------------------------------------------
	.module main
	.optsdcc -mgbz80
	
;--------------------------------------------------------
; Public variables in this module
;--------------------------------------------------------
	.globl _main
	.globl _set_bkg_tiles
	.globl _set_bkg_data
	.globl _joypad
	.globl _delay
	.globl _length
	.globl _music
	.globl _frequencies
	.globl _RICKMAP
	.globl _RICKTILES
;--------------------------------------------------------
; special function registers
;--------------------------------------------------------
;--------------------------------------------------------
; ram data
;--------------------------------------------------------
	.area _DATA
;--------------------------------------------------------
; ram data
;--------------------------------------------------------
	.area _INITIALIZED
;--------------------------------------------------------
; absolute external ram data
;--------------------------------------------------------
	.area _DABS (ABS)
;--------------------------------------------------------
; global & static initialisations
;--------------------------------------------------------
	.area _HOME
	.area _GSINIT
	.area _GSFINAL
	.area _GSINIT
;--------------------------------------------------------
; Home
;--------------------------------------------------------
	.area _HOME
	.area _HOME
;--------------------------------------------------------
; code
;--------------------------------------------------------
	.area _CODE
;main.c:45: void main() {
;	---------------------------------
; Function main
; ---------------------------------
_main::
;main.c:48: NR52_REG = 0x80;
	ld	a, #0x80
	ldh	(_NR52_REG + 0), a
;main.c:50: NR50_REG = 0x77;
	ld	a, #0x77
	ldh	(_NR50_REG + 0), a
;main.c:52: NR51_REG = 0xFF;
	ld	a, #0xff
	ldh	(_NR51_REG + 0), a
;main.c:57: DISPLAY_ON;						
	ldh	a, (_LCDC_REG + 0)
	or	a, #0x80
	ldh	(_LCDC_REG + 0), a
;main.c:59: set_bkg_data(0, 128, RICKTILES);
	ld	de, #_RICKTILES
	push	de
	ld	hl, #0x8000
	push	hl
	call	_set_bkg_data
	add	sp, #4
;main.c:62: set_bkg_tiles(4,8,12,12,RICKMAP);
	ld	de, #_RICKMAP
	push	de
	ld	hl, #0xc0c
	push	hl
	ld	hl, #0x804
	push	hl
	call	_set_bkg_tiles
	add	sp, #6
;main.c:64: SHOW_BKG;
	ldh	a, (_LCDC_REG + 0)
	or	a, #0x01
	ldh	(_LCDC_REG + 0), a
;main.c:67: int note = 0;
	ld	bc, #0x0000
;main.c:68: while(1) {
00109$:
;main.c:70: UBYTE joypad_state = joypad();
	call	_joypad
	ld	a, e
;main.c:72: if(joypad_state) {
	or	a, a
	jr	Z, 00109$
;main.c:74: while (music[note] != END) {
00101$:
	ld	hl, #_music
	add	hl, bc
	ld	l, (hl)
;	spillPairReg hl
	ld	a, l
	sub	a, #0x49
	ld	a, #0x01
	jr	Z, 00139$
	xor	a, a
00139$:
;main.c:76: uint16_t value = frequencies[music[note]];
	or	a,a
	jr	NZ, 00117$
	ld	h,a
;	spillPairReg hl
;	spillPairReg hl
	add	hl, hl
	ld	de, #_frequencies
	add	hl, de
	ld	a,	(hl+)
	ld	h, (hl)
;	spillPairReg hl
	ld	l, a
;	spillPairReg hl
;	spillPairReg hl
;main.c:87: NR10_REG = 0x00;
	xor	a, a
	ldh	(_NR10_REG + 0), a
;main.c:96: NR11_REG = 0xB8;
	ld	a, #0xb8
	ldh	(_NR11_REG + 0), a
;main.c:107: NR12_REG = 0xF6;
	ld	a, #0xf6
	ldh	(_NR12_REG + 0), a
;main.c:117: NR13_REG = (uint8_t) value;
	push	hl
	ld	a, l
	ldh	(_NR13_REG + 0), a
	pop	hl
;main.c:129: NR14_REG = 0x80 + (value >> 8);
	ld	a, h
	add	a, #0x80
	ldh	(_NR14_REG + 0), a
;main.c:132: delay(length[note]);
	ld	l, c
	ld	h, b
	add	hl, hl
	add	hl, hl
	ld	de, #_length
	add	hl, de
	ld	a,	(hl+)
	ld	h, (hl)
;	spillPairReg hl
	ld	l, a
;	spillPairReg hl
;	spillPairReg hl
	push	bc
	push	hl
	call	_delay
	pop	hl
	pop	bc
;main.c:135: note ++;
	inc	bc
	jr	00101$
00117$:
;main.c:138: if(music[note] == END) {
	or	a, a
	jr	Z, 00109$
;main.c:139: note = 0;
	ld	bc, #0x0000
;main.c:143: }
	jr	00109$
_RICKTILES:
	.db #0x00	; 0
	.db #0x00	; 0
	.db #0x00	; 0
	.db #0x00	; 0
	.db #0x00	; 0
	.db #0x00	; 0
	.db #0x00	; 0
	.db #0x00	; 0
	.db #0x00	; 0
	.db #0x00	; 0
	.db #0x00	; 0
	.db #0x00	; 0
	.db #0x00	; 0
	.db #0x00	; 0
	.db #0x00	; 0
	.db #0x00	; 0
	.db #0x00	; 0
	.db #0x00	; 0
	.db #0x03	; 3
	.db #0x00	; 0
	.db #0x07	; 7
	.db #0x00	; 0
	.db #0x1f	; 31
	.db #0x00	; 0
	.db #0x17	; 23
	.db #0x00	; 0
	.db #0x3e	; 62
	.db #0x01	; 1
	.db #0x3b	; 59
	.db #0x00	; 0
	.db #0x3e	; 62
	.db #0x01	; 1
	.db #0x78	; 120	'x'
	.db #0x00	; 0
	.db #0xd9	; 217
	.db #0x00	; 0
	.db #0x3b	; 59
	.db #0x00	; 0
	.db #0xee	; 238
	.db #0x01	; 1
	.db #0xff	; 255
	.db #0x00	; 0
	.db #0x17	; 23
	.db #0xe8	; 232
	.db #0x01	; 1
	.db #0xfe	; 254
	.db #0x00	; 0
	.db #0xff	; 255
	.db #0x00	; 0
	.db #0x00	; 0
	.db #0xf8	; 248
	.db #0x00	; 0
	.db #0xf6	; 246
	.db #0x00	; 0
	.db #0x0e	; 14
	.db #0xf0	; 240
	.db #0xaf	; 175
	.db #0x50	; 80	'P'
	.db #0xd7	; 215
	.db #0x28	; 40
	.db #0x83	; 131
	.db #0x7c	; 124
	.db #0x81	; 129
	.db #0x7e	; 126
	.db #0x00	; 0
	.db #0x00	; 0
	.db #0x00	; 0
	.db #0x00	; 0
	.db #0x00	; 0
	.db #0x00	; 0
	.db #0x80	; 128
	.db #0x00	; 0
	.db #0x40	; 64
	.db #0x00	; 0
	.db #0xa0	; 160
	.db #0x00	; 0
	.db #0xe0	; 224
	.db #0x00	; 0
	.db #0xa0	; 160
	.db #0x40	; 64
	.db #0x00	; 0
	.db #0x00	; 0
	.db #0x00	; 0
	.db #0x00	; 0
	.db #0x01	; 1
	.db #0x00	; 0
	.db #0x01	; 1
	.db #0x00	; 0
	.db #0x01	; 1
	.db #0x00	; 0
	.db #0x01	; 1
	.db #0x00	; 0
	.db #0x01	; 1
	.db #0x00	; 0
	.db #0x01	; 1
	.db #0x00	; 0
	.db #0x7e	; 126
	.db #0x01	; 1
	.db #0xbe	; 190
	.db #0x01	; 1
	.db #0xfe	; 254
	.db #0x01	; 1
	.db #0xbf	; 191
	.db #0x00	; 0
	.db #0x0f	; 15
	.db #0x00	; 0
	.db #0xff	; 255
	.db #0x00	; 0
	.db #0x7f	; 127
	.db #0x00	; 0
	.db #0x7f	; 127
	.db #0x00	; 0
	.db #0x00	; 0
	.db #0xff	; 255
	.db #0x00	; 0
	.db #0xff	; 255
	.db #0x00	; 0
	.db #0xff	; 255
	.db #0xc0	; 192
	.db #0x3f	; 63
	.db #0xff	; 255
	.db #0x00	; 0
	.db #0xff	; 255
	.db #0x00	; 0
	.db #0xff	; 255
	.db #0x00	; 0
	.db #0xff	; 255
	.db #0x00	; 0
	.db #0x01	; 1
	.db #0xfe	; 254
	.db #0x01	; 1
	.db #0xfe	; 254
	.db #0x12	; 18
	.db #0xed	; 237
	.db #0x02	; 2
	.db #0xfd	; 253
	.db #0xf6	; 246
	.db #0x09	; 9
	.db #0xff	; 255
	.db #0x00	; 0
	.db #0xff	; 255
	.db #0x00	; 0
	.db #0xff	; 255
	.db #0x00	; 0
	.db #0xf0	; 240
	.db #0x00	; 0
	.db #0xf0	; 240
	.db #0x00	; 0
	.db #0x38	; 56	'8'
	.db #0xc0	; 192
	.db #0x18	; 24
	.db #0xe0	; 224
	.db #0x1c	; 28
	.db #0xe0	; 224
	.db #0x18	; 24
	.db #0xe0	; 224
	.db #0x98	; 152
	.db #0x60	; 96
	.db #0xd8	; 216
	.db #0x20	; 32
	.db #0x00	; 0
	.db #0x00	; 0
	.db #0x01	; 1
	.db #0x00	; 0
	.db #0x01	; 1
	.db #0x00	; 0
	.db #0x01	; 1
	.db #0x00	; 0
	.db #0x01	; 1
	.db #0x00	; 0
	.db #0x01	; 1
	.db #0x00	; 0
	.db #0x01	; 1
	.db #0x00	; 0
	.db #0x01	; 1
	.db #0x00	; 0
	.db #0xff	; 255
	.db #0x00	; 0
	.db #0xff	; 255
	.db #0x00	; 0
	.db #0xff	; 255
	.db #0x00	; 0
	.db #0xf7	; 247
	.db #0x00	; 0
	.db #0xef	; 239
	.db #0x00	; 0
	.db #0xef	; 239
	.db #0x00	; 0
	.db #0xfe	; 254
	.db #0x01	; 1
	.db #0xde	; 222
	.db #0x01	; 1
	.db #0xff	; 255
	.db #0x00	; 0
	.db #0xff	; 255
	.db #0x00	; 0
	.db #0xff	; 255
	.db #0x00	; 0
	.db #0xff	; 255
	.db #0x00	; 0
	.db #0x7f	; 127
	.db #0x80	; 128
	.db #0xff	; 255
	.db #0x00	; 0
	.db #0x7f	; 127
	.db #0x80	; 128
	.db #0xff	; 255
	.db #0x00	; 0
	.db #0xff	; 255
	.db #0x00	; 0
	.db #0xff	; 255
	.db #0x00	; 0
	.db #0xff	; 255
	.db #0x00	; 0
	.db #0xff	; 255
	.db #0x00	; 0
	.db #0xff	; 255
	.db #0x00	; 0
	.db #0xff	; 255
	.db #0x00	; 0
	.db #0xff	; 255
	.db #0x00	; 0
	.db #0xff	; 255
	.db #0x00	; 0
	.db #0xd8	; 216
	.db #0x20	; 32
	.db #0xf8	; 248
	.db #0x00	; 0
	.db #0xf8	; 248
	.db #0x00	; 0
	.db #0xf8	; 248
	.db #0x00	; 0
	.db #0xf8	; 248
	.db #0x00	; 0
	.db #0xf8	; 248
	.db #0x00	; 0
	.db #0xf0	; 240
	.db #0x00	; 0
	.db #0xf0	; 240
	.db #0x00	; 0
	.db #0x06	; 6
	.db #0x00	; 0
	.db #0x07	; 7
	.db #0x00	; 0
	.db #0x05	; 5
	.db #0x00	; 0
	.db #0x01	; 1
	.db #0x00	; 0
	.db #0x03	; 3
	.db #0x00	; 0
	.db #0x01	; 1
	.db #0x00	; 0
	.db #0x01	; 1
	.db #0x00	; 0
	.db #0x01	; 1
	.db #0x00	; 0
	.db #0xff	; 255
	.db #0x00	; 0
	.db #0x7f	; 127
	.db #0x00	; 0
	.db #0x7f	; 127
	.db #0x00	; 0
	.db #0x7f	; 127
	.db #0x00	; 0
	.db #0xff	; 255
	.db #0x00	; 0
	.db #0xbf	; 191
	.db #0x00	; 0
	.db #0xbf	; 191
	.db #0x00	; 0
	.db #0xbf	; 191
	.db #0x00	; 0
	.db #0xf7	; 247
	.db #0x08	; 8
	.db #0xff	; 255
	.db #0x00	; 0
	.db #0xff	; 255
	.db #0x00	; 0
	.db #0xff	; 255
	.db #0x00	; 0
	.db #0xff	; 255
	.db #0x00	; 0
	.db #0xff	; 255
	.db #0x00	; 0
	.db #0xff	; 255
	.db #0x00	; 0
	.db #0xff	; 255
	.db #0x00	; 0
	.db #0xe0	; 224
	.db #0x00	; 0
	.db #0xe0	; 224
	.db #0x00	; 0
	.db #0xc0	; 192
	.db #0x00	; 0
	.db #0xe0	; 224
	.db #0x00	; 0
	.db #0xe0	; 224
	.db #0x00	; 0
	.db #0xe0	; 224
	.db #0x00	; 0
	.db #0xe0	; 224
	.db #0x00	; 0
	.db #0xc0	; 192
	.db #0x00	; 0
	.db #0xbf	; 191
	.db #0x00	; 0
	.db #0x3f	; 63
	.db #0x00	; 0
	.db #0x3f	; 63
	.db #0x00	; 0
	.db #0x3f	; 63
	.db #0x00	; 0
	.db #0x3f	; 63
	.db #0x00	; 0
	.db #0x3f	; 63
	.db #0x00	; 0
	.db #0x3f	; 63
	.db #0x00	; 0
	.db #0x3f	; 63
	.db #0x00	; 0
	.db #0xff	; 255
	.db #0x00	; 0
	.db #0xff	; 255
	.db #0x00	; 0
	.db #0xff	; 255
	.db #0x00	; 0
	.db #0xfc	; 252
	.db #0x00	; 0
	.db #0xfc	; 252
	.db #0x00	; 0
	.db #0xf8	; 248
	.db #0x00	; 0
	.db #0xf8	; 248
	.db #0x00	; 0
	.db #0xf8	; 248
	.db #0x00	; 0
	.db #0xc0	; 192
	.db #0x00	; 0
	.db #0xc0	; 192
	.db #0x00	; 0
	.db #0x00	; 0
	.db #0x00	; 0
	.db #0x00	; 0
	.db #0x00	; 0
	.db #0x00	; 0
	.db #0x00	; 0
	.db #0x00	; 0
	.db #0x00	; 0
	.db #0x00	; 0
	.db #0x00	; 0
	.db #0x00	; 0
	.db #0x00	; 0
	.db #0x00	; 0
	.db #0x00	; 0
	.db #0x00	; 0
	.db #0x00	; 0
	.db #0x00	; 0
	.db #0x00	; 0
	.db #0x00	; 0
	.db #0x00	; 0
	.db #0x00	; 0
	.db #0x00	; 0
	.db #0x00	; 0
	.db #0x00	; 0
	.db #0x01	; 1
	.db #0x00	; 0
	.db #0x0f	; 15
	.db #0x00	; 0
	.db #0x3f	; 63
	.db #0x00	; 0
	.db #0x3f	; 63
	.db #0x00	; 0
	.db #0x3f	; 63
	.db #0x00	; 0
	.db #0x3f	; 63
	.db #0x00	; 0
	.db #0x3f	; 63
	.db #0x00	; 0
	.db #0xdf	; 223
	.db #0x00	; 0
	.db #0xdf	; 223
	.db #0x00	; 0
	.db #0xdf	; 223
	.db #0x00	; 0
	.db #0xf8	; 248
	.db #0x00	; 0
	.db #0xf8	; 248
	.db #0x00	; 0
	.db #0xf8	; 248
	.db #0x00	; 0
	.db #0xf8	; 248
	.db #0x04	; 4
	.db #0xf8	; 248
	.db #0x06	; 6
	.db #0xf8	; 248
	.db #0x07	; 7
	.db #0xf8	; 248
	.db #0x07	; 7
	.db #0xf8	; 248
	.db #0x07	; 7
	.db #0x00	; 0
	.db #0x00	; 0
	.db #0x00	; 0
	.db #0x00	; 0
	.db #0x00	; 0
	.db #0x00	; 0
	.db #0x00	; 0
	.db #0x00	; 0
	.db #0x00	; 0
	.db #0x00	; 0
	.db #0x00	; 0
	.db #0x00	; 0
	.db #0x40	; 64
	.db #0x80	; 128
	.db #0x10	; 16
	.db #0xe0	; 224
	.db #0x00	; 0
	.db #0x00	; 0
	.db #0x00	; 0
	.db #0x00	; 0
	.db #0x00	; 0
	.db #0x00	; 0
	.db #0x00	; 0
	.db #0x00	; 0
	.db #0x00	; 0
	.db #0x00	; 0
	.db #0x00	; 0
	.db #0x00	; 0
	.db #0x01	; 1
	.db #0x00	; 0
	.db #0x03	; 3
	.db #0x00	; 0
	.db #0x00	; 0
	.db #0x00	; 0
	.db #0x00	; 0
	.db #0x00	; 0
	.db #0x00	; 0
	.db #0x00	; 0
	.db #0x0f	; 15
	.db #0x00	; 0
	.db #0x1f	; 31
	.db #0x00	; 0
	.db #0x7f	; 127
	.db #0x00	; 0
	.db #0xfc	; 252
	.db #0x03	; 3
	.db #0xf0	; 240
	.db #0x0f	; 15
	.db #0x07	; 7
	.db #0x00	; 0
	.db #0x1f	; 31
	.db #0x00	; 0
	.db #0x7f	; 127
	.db #0x00	; 0
	.db #0xff	; 255
	.db #0x00	; 0
	.db #0xff	; 255
	.db #0x00	; 0
	.db #0xff	; 255
	.db #0x00	; 0
	.db #0x3f	; 63
	.db #0xc0	; 192
	.db #0x37	; 55	'7'
	.db #0xc0	; 192
	.db #0xdf	; 223
	.db #0x00	; 0
	.db #0xff	; 255
	.db #0x00	; 0
	.db #0xff	; 255
	.db #0x00	; 0
	.db #0xff	; 255
	.db #0x00	; 0
	.db #0xff	; 255
	.db #0x00	; 0
	.db #0x7f	; 127
	.db #0x80	; 128
	.db #0x3b	; 59
	.db #0xc4	; 196
	.db #0xff	; 255
	.db #0x00	; 0
	.db #0xf8	; 248
	.db #0x07	; 7
	.db #0xf0	; 240
	.db #0x0f	; 15
	.db #0xf0	; 240
	.db #0x0f	; 15
	.db #0xf0	; 240
	.db #0x0f	; 15
	.db #0xf0	; 240
	.db #0x0f	; 15
	.db #0xe0	; 224
	.db #0x1f	; 31
	.db #0xe0	; 224
	.db #0x1f	; 31
	.db #0xe0	; 224
	.db #0x1f	; 31
	.db #0x1e	; 30
	.db #0xe0	; 224
	.db #0x05	; 5
	.db #0xfa	; 250
	.db #0x00	; 0
	.db #0xff	; 255
	.db #0x00	; 0
	.db #0xff	; 255
	.db #0x00	; 0
	.db #0xff	; 255
	.db #0x00	; 0
	.db #0xff	; 255
	.db #0x00	; 0
	.db #0xff	; 255
	.db #0x00	; 0
	.db #0xff	; 255
	.db #0x00	; 0
	.db #0x00	; 0
	.db #0xfe	; 254
	.db #0x00	; 0
	.db #0x7f	; 127
	.db #0x80	; 128
	.db #0x01	; 1
	.db #0xfe	; 254
	.db #0x00	; 0
	.db #0xff	; 255
	.db #0x00	; 0
	.db #0xff	; 255
	.db #0x00	; 0
	.db #0xff	; 255
	.db #0x00	; 0
	.db #0xff	; 255
	.db #0x00	; 0
	.db #0x00	; 0
	.db #0x00	; 0
	.db #0x00	; 0
	.db #0xc0	; 192
	.db #0x00	; 0
	.db #0xfc	; 252
	.db #0x00	; 0
	.db #0x3e	; 62
	.db #0xc0	; 192
	.db #0x0f	; 15
	.db #0xf0	; 240
	.db #0x00	; 0
	.db #0xff	; 255
	.db #0x00	; 0
	.db #0xff	; 255
	.db #0x00	; 0
	.db #0x00	; 0
	.db #0x00	; 0
	.db #0x00	; 0
	.db #0x00	; 0
	.db #0x00	; 0
	.db #0x00	; 0
	.db #0x00	; 0
	.db #0x00	; 0
	.db #0x00	; 0
	.db #0x00	; 0
	.db #0x00	; 0
	.db #0x00	; 0
	.db #0xc0	; 192
	.db #0x00	; 0
	.db #0xc0	; 192
	.db #0x0f	; 15
	.db #0x00	; 0
	.db #0x1f	; 31
	.db #0x00	; 0
	.db #0x7c	; 124
	.db #0x03	; 3
	.db #0x70	; 112	'p'
	.db #0x0f	; 15
	.db #0xc0	; 192
	.db #0x3f	; 63
	.db #0x80	; 128
	.db #0x7f	; 127
	.db #0x80	; 128
	.db #0x7f	; 127
	.db #0x80	; 128
	.db #0x7f	; 127
	.db #0xc1	; 193
	.db #0x3e	; 62
	.db #0x00	; 0
	.db #0xff	; 255
	.db #0x00	; 0
	.db #0xff	; 255
	.db #0x00	; 0
	.db #0xff	; 255
	.db #0x00	; 0
	.db #0xff	; 255
	.db #0x00	; 0
	.db #0xff	; 255
	.db #0x00	; 0
	.db #0xff	; 255
	.db #0x00	; 0
	.db #0xff	; 255
	.db #0x3f	; 63
	.db #0xc0	; 192
	.db #0x3f	; 63
	.db #0xc0	; 192
	.db #0x3f	; 63
	.db #0xc0	; 192
	.db #0x3f	; 63
	.db #0xc0	; 192
	.db #0x0f	; 15
	.db #0xf0	; 240
	.db #0x01	; 1
	.db #0xfe	; 254
	.db #0x03	; 3
	.db #0xfc	; 252
	.db #0x01	; 1
	.db #0xfe	; 254
	.db #0xff	; 255
	.db #0x00	; 0
	.db #0xff	; 255
	.db #0x00	; 0
	.db #0x97	; 151
	.db #0x68	; 104	'h'
	.db #0x87	; 135
	.db #0x78	; 120	'x'
	.db #0x83	; 131
	.db #0x7c	; 124
	.db #0x82	; 130
	.db #0x7d	; 125
	.db #0x02	; 2
	.db #0xfd	; 253
	.db #0x03	; 3
	.db #0xfc	; 252
	.db #0xff	; 255
	.db #0x00	; 0
	.db #0xff	; 255
	.db #0x00	; 0
	.db #0xff	; 255
	.db #0x00	; 0
	.db #0xfe	; 254
	.db #0x01	; 1
	.db #0xfe	; 254
	.db #0x01	; 1
	.db #0x1f	; 31
	.db #0xe0	; 224
	.db #0x00	; 0
	.db #0xff	; 255
	.db #0xfe	; 254
	.db #0x01	; 1
	.db #0xc0	; 192
	.db #0x3f	; 63
	.db #0x80	; 128
	.db #0x7f	; 127
	.db #0x80	; 128
	.db #0x7f	; 127
	.db #0x00	; 0
	.db #0xff	; 255
	.db #0x00	; 0
	.db #0xff	; 255
	.db #0x00	; 0
	.db #0xff	; 255
	.db #0x00	; 0
	.db #0xff	; 255
	.db #0x00	; 0
	.db #0xff	; 255
	.db #0x00	; 0
	.db #0xff	; 255
	.db #0x00	; 0
	.db #0xff	; 255
	.db #0x00	; 0
	.db #0xff	; 255
	.db #0x00	; 0
	.db #0xff	; 255
	.db #0x00	; 0
	.db #0xff	; 255
	.db #0x00	; 0
	.db #0xff	; 255
	.db #0x00	; 0
	.db #0xff	; 255
	.db #0x00	; 0
	.db #0xff	; 255
	.db #0x00	; 0
	.db #0xc0	; 192
	.db #0x00	; 0
	.db #0xe0	; 224
	.db #0x00	; 0
	.db #0xf0	; 240
	.db #0x00	; 0
	.db #0xf0	; 240
	.db #0x00	; 0
	.db #0xf0	; 240
	.db #0x00	; 0
	.db #0xf0	; 240
	.db #0x00	; 0
	.db #0xf0	; 240
	.db #0x00	; 0
	.db #0xf8	; 248
	.db #0x80	; 128
	.db #0x7f	; 127
	.db #0x00	; 0
	.db #0xff	; 255
	.db #0x00	; 0
	.db #0xff	; 255
	.db #0x00	; 0
	.db #0xff	; 255
	.db #0x00	; 0
	.db #0xff	; 255
	.db #0x00	; 0
	.db #0xff	; 255
	.db #0x00	; 0
	.db #0xff	; 255
	.db #0x00	; 0
	.db #0xff	; 255
	.db #0x01	; 1
	.db #0xfe	; 254
	.db #0x01	; 1
	.db #0xfe	; 254
	.db #0x01	; 1
	.db #0xfe	; 254
	.db #0x01	; 1
	.db #0xfe	; 254
	.db #0x01	; 1
	.db #0xfe	; 254
	.db #0x00	; 0
	.db #0xff	; 255
	.db #0x01	; 1
	.db #0xfe	; 254
	.db #0x01	; 1
	.db #0xfe	; 254
	.db #0x02	; 2
	.db #0xfd	; 253
	.db #0x1f	; 31
	.db #0xe0	; 224
	.db #0x1f	; 31
	.db #0xe0	; 224
	.db #0xe0	; 224
	.db #0x1f	; 31
	.db #0xff	; 255
	.db #0x00	; 0
	.db #0x3f	; 63
	.db #0xc0	; 192
	.db #0xfc	; 252
	.db #0x03	; 3
	.db #0xfb	; 251
	.db #0x04	; 4
	.db #0x1e	; 30
	.db #0xe1	; 225
	.db #0xf8	; 248
	.db #0x07	; 7
	.db #0xfe	; 254
	.db #0x01	; 1
	.db #0x00	; 0
	.db #0xff	; 255
	.db #0xe0	; 224
	.db #0x1f	; 31
	.db #0xfc	; 252
	.db #0x03	; 3
	.db #0x00	; 0
	.db #0xff	; 255
	.db #0xe0	; 224
	.db #0x1f	; 31
	.db #0x00	; 0
	.db #0xfc	; 252
	.db #0x00	; 0
	.db #0xfc	; 252
	.db #0x00	; 0
	.db #0xfc	; 252
	.db #0x00	; 0
	.db #0xfc	; 252
	.db #0x00	; 0
	.db #0xfc	; 252
	.db #0x00	; 0
	.db #0xfc	; 252
	.db #0x00	; 0
	.db #0xfc	; 252
	.db #0x00	; 0
	.db #0xfc	; 252
	.db #0x00	; 0
	.db #0xff	; 255
	.db #0x00	; 0
	.db #0xff	; 255
	.db #0x80	; 128
	.db #0x7f	; 127
	.db #0x80	; 128
	.db #0x7f	; 127
	.db #0x00	; 0
	.db #0xff	; 255
	.db #0x00	; 0
	.db #0xff	; 255
	.db #0x00	; 0
	.db #0xff	; 255
	.db #0x00	; 0
	.db #0xff	; 255
	.db #0x00	; 0
	.db #0xff	; 255
	.db #0x00	; 0
	.db #0xff	; 255
	.db #0x01	; 1
	.db #0xfe	; 254
	.db #0x00	; 0
	.db #0xff	; 255
	.db #0x00	; 0
	.db #0xff	; 255
	.db #0x01	; 1
	.db #0xfe	; 254
	.db #0x00	; 0
	.db #0xff	; 255
	.db #0x01	; 1
	.db #0xfe	; 254
	.db #0x3d	; 61
	.db #0xc2	; 194
	.db #0x78	; 120	'x'
	.db #0x87	; 135
	.db #0xfb	; 251
	.db #0x04	; 4
	.db #0x3b	; 59
	.db #0xc4	; 196
	.db #0x38	; 56	'8'
	.db #0xc7	; 199
	.db #0xfb	; 251
	.db #0x04	; 4
	.db #0x3b	; 59
	.db #0xc4	; 196
	.db #0xf8	; 248
	.db #0x07	; 7
	.db #0xf8	; 248
	.db #0x07	; 7
	.db #0x00	; 0
	.db #0xff	; 255
	.db #0xf0	; 240
	.db #0x0f	; 15
	.db #0xf0	; 240
	.db #0x0f	; 15
	.db #0x00	; 0
	.db #0xff	; 255
	.db #0xe0	; 224
	.db #0x1f	; 31
	.db #0xe0	; 224
	.db #0x1f	; 31
	.db #0x00	; 0
	.db #0xff	; 255
	.db #0x00	; 0
	.db #0xfe	; 254
	.db #0x00	; 0
	.db #0xff	; 255
	.db #0x00	; 0
	.db #0xff	; 255
	.db #0x00	; 0
	.db #0xff	; 255
	.db #0x00	; 0
	.db #0xff	; 255
	.db #0x00	; 0
	.db #0xff	; 255
	.db #0x00	; 0
	.db #0xff	; 255
	.db #0x00	; 0
	.db #0xff	; 255
	.db #0x00	; 0
	.db #0x00	; 0
	.db #0x00	; 0
	.db #0x00	; 0
	.db #0x00	; 0
	.db #0x80	; 128
	.db #0x00	; 0
	.db #0x80	; 128
	.db #0x00	; 0
	.db #0x80	; 128
	.db #0x00	; 0
	.db #0x80	; 128
	.db #0x00	; 0
	.db #0xc0	; 192
	.db #0x00	; 0
	.db #0xf8	; 248
	.db #0x01	; 1
	.db #0xfe	; 254
	.db #0x00	; 0
	.db #0xff	; 255
	.db #0x00	; 0
	.db #0xff	; 255
	.db #0x01	; 1
	.db #0xfe	; 254
	.db #0x00	; 0
	.db #0xff	; 255
	.db #0x00	; 0
	.db #0xff	; 255
	.db #0x01	; 1
	.db #0xfe	; 254
	.db #0x01	; 1
	.db #0xfe	; 254
	.db #0xff	; 255
	.db #0x00	; 0
	.db #0x3f	; 63
	.db #0xc0	; 192
	.db #0x10	; 16
	.db #0xef	; 239
	.db #0xf7	; 247
	.db #0x08	; 8
	.db #0x1f	; 31
	.db #0xe0	; 224
	.db #0x11	; 17
	.db #0xee	; 238
	.db #0xf6	; 246
	.db #0x09	; 9
	.db #0xf7	; 247
	.db #0x08	; 8
	.db #0x00	; 0
	.db #0xff	; 255
	.db #0xe0	; 224
	.db #0x1f	; 31
	.db #0x00	; 0
	.db #0xff	; 255
	.db #0xc0	; 192
	.db #0x3f	; 63
	.db #0xe0	; 224
	.db #0x1f	; 31
	.db #0xe0	; 224
	.db #0x1f	; 31
	.db #0x00	; 0
	.db #0xff	; 255
	.db #0xc0	; 192
	.db #0x3f	; 63
	.db #0x00	; 0
	.db #0xff	; 255
	.db #0x06	; 6
	.db #0xf9	; 249
	.db #0x07	; 7
	.db #0xf8	; 248
	.db #0x07	; 7
	.db #0xf8	; 248
	.db #0x07	; 7
	.db #0xf8	; 248
	.db #0x07	; 7
	.db #0xf8	; 248
	.db #0x07	; 7
	.db #0xf8	; 248
	.db #0x07	; 7
	.db #0xf8	; 248
	.db #0x00	; 0
	.db #0xff	; 255
	.db #0x00	; 0
	.db #0xff	; 255
	.db #0x3f	; 63
	.db #0x00	; 0
	.db #0xff	; 255
	.db #0x00	; 0
	.db #0xff	; 255
	.db #0x00	; 0
	.db #0xff	; 255
	.db #0x00	; 0
	.db #0xff	; 255
	.db #0x00	; 0
	.db #0xff	; 255
	.db #0x00	; 0
	.db #0x00	; 0
	.db #0xff	; 255
	.db #0x00	; 0
	.db #0xff	; 255
	.db #0xc0	; 192
	.db #0x3f	; 63
	.db #0xe0	; 224
	.db #0x1f	; 31
	.db #0xe0	; 224
	.db #0x1f	; 31
	.db #0xe0	; 224
	.db #0x1f	; 31
	.db #0xf0	; 240
	.db #0x0f	; 15
	.db #0xf8	; 248
	.db #0x07	; 7
	.db #0x00	; 0
	.db #0xfc	; 252
	.db #0x00	; 0
	.db #0xfe	; 254
	.db #0x01	; 1
	.db #0xfe	; 254
	.db #0x00	; 0
	.db #0xff	; 255
	.db #0x00	; 0
	.db #0xff	; 255
	.db #0x00	; 0
	.db #0xff	; 255
	.db #0x00	; 0
	.db #0xff	; 255
	.db #0x00	; 0
	.db #0xff	; 255
	.db #0x00	; 0
	.db #0x00	; 0
	.db #0x00	; 0
	.db #0x00	; 0
	.db #0x00	; 0
	.db #0x00	; 0
	.db #0x00	; 0
	.db #0xc0	; 192
	.db #0x00	; 0
	.db #0xc0	; 192
	.db #0x00	; 0
	.db #0xf0	; 240
	.db #0x04	; 4
	.db #0xf8	; 248
	.db #0x00	; 0
	.db #0xfc	; 252
	.db #0x00	; 0
	.db #0xff	; 255
	.db #0x01	; 1
	.db #0xfe	; 254
	.db #0x00	; 0
	.db #0xff	; 255
	.db #0x00	; 0
	.db #0xff	; 255
	.db #0x00	; 0
	.db #0xff	; 255
	.db #0x01	; 1
	.db #0xfe	; 254
	.db #0x00	; 0
	.db #0xff	; 255
	.db #0x00	; 0
	.db #0xff	; 255
	.db #0x10	; 16
	.db #0xef	; 239
	.db #0xf0	; 240
	.db #0x0f	; 15
	.db #0x37	; 55	'7'
	.db #0xc8	; 200
	.db #0x11	; 17
	.db #0xee	; 238
	.db #0x10	; 16
	.db #0xef	; 239
	.db #0xff	; 255
	.db #0x00	; 0
	.db #0x1f	; 31
	.db #0xe0	; 224
	.db #0x10	; 16
	.db #0xef	; 239
	.db #0x00	; 0
	.db #0xff	; 255
	.db #0x00	; 0
	.db #0xff	; 255
	.db #0xc0	; 192
	.db #0x3f	; 63
	.db #0xc0	; 192
	.db #0x3f	; 63
	.db #0x00	; 0
	.db #0xff	; 255
	.db #0x80	; 128
	.db #0x7f	; 127
	.db #0x80	; 128
	.db #0x7f	; 127
	.db #0x00	; 0
	.db #0xff	; 255
	.db #0x01	; 1
	.db #0xfe	; 254
	.db #0x01	; 1
	.db #0xfe	; 254
	.db #0x01	; 1
	.db #0xfe	; 254
	.db #0x01	; 1
	.db #0xfe	; 254
	.db #0x01	; 1
	.db #0xfe	; 254
	.db #0x00	; 0
	.db #0xff	; 255
	.db #0x00	; 0
	.db #0xff	; 255
	.db #0x00	; 0
	.db #0xff	; 255
	.db #0xff	; 255
	.db #0x00	; 0
	.db #0xff	; 255
	.db #0x00	; 0
	.db #0xff	; 255
	.db #0x00	; 0
	.db #0xff	; 255
	.db #0x00	; 0
	.db #0xef	; 239
	.db #0x10	; 16
	.db #0x7f	; 127
	.db #0x80	; 128
	.db #0x7f	; 127
	.db #0x80	; 128
	.db #0x01	; 1
	.db #0xfe	; 254
	.db #0xfc	; 252
	.db #0x03	; 3
	.db #0xfc	; 252
	.db #0x03	; 3
	.db #0xfe	; 254
	.db #0x01	; 1
	.db #0xfe	; 254
	.db #0x01	; 1
	.db #0xfe	; 254
	.db #0x01	; 1
	.db #0xfe	; 254
	.db #0x01	; 1
	.db #0xfe	; 254
	.db #0x01	; 1
	.db #0xfe	; 254
	.db #0x01	; 1
	.db #0x00	; 0
	.db #0xfc	; 252
	.db #0x02	; 2
	.db #0xfc	; 252
	.db #0x02	; 2
	.db #0xfc	; 252
	.db #0x02	; 2
	.db #0xfc	; 252
	.db #0x02	; 2
	.db #0xfc	; 252
	.db #0x02	; 2
	.db #0xfc	; 252
	.db #0x02	; 2
	.db #0xfc	; 252
	.db #0x00	; 0
	.db #0xfe	; 254
_RICKMAP:
	.db #0x00	; 0
	.db #0x00	; 0
	.db #0x00	; 0
	.db #0x01	; 1
	.db #0x02	; 2
	.db #0x03	; 3
	.db #0x04	; 4
	.db #0x00	; 0
	.db #0x00	; 0
	.db #0x00	; 0
	.db #0x00	; 0
	.db #0x00	; 0
	.db #0x00	; 0
	.db #0x00	; 0
	.db #0x05	; 5
	.db #0x06	; 6
	.db #0x07	; 7
	.db #0x08	; 8
	.db #0x09	; 9
	.db #0x00	; 0
	.db #0x00	; 0
	.db #0x00	; 0
	.db #0x00	; 0
	.db #0x00	; 0
	.db #0x00	; 0
	.db #0x00	; 0
	.db #0x0a	; 10
	.db #0x0b	; 11
	.db #0x0c	; 12
	.db #0x0d	; 13
	.db #0x0e	; 14
	.db #0x00	; 0
	.db #0x00	; 0
	.db #0x00	; 0
	.db #0x00	; 0
	.db #0x00	; 0
	.db #0x00	; 0
	.db #0x00	; 0
	.db #0x0f	; 15
	.db #0x10	; 16
	.db #0x0d	; 13
	.db #0x11	; 17
	.db #0x12	; 18
	.db #0x00	; 0
	.db #0x00	; 0
	.db #0x00	; 0
	.db #0x00	; 0
	.db #0x00	; 0
	.db #0x00	; 0
	.db #0x00	; 0
	.db #0x00	; 0
	.db #0x13	; 19
	.db #0x0d	; 13
	.db #0x14	; 20
	.db #0x15	; 21
	.db #0x00	; 0
	.db #0x00	; 0
	.db #0x00	; 0
	.db #0x00	; 0
	.db #0x00	; 0
	.db #0x00	; 0
	.db #0x00	; 0
	.db #0x16	; 22
	.db #0x17	; 23
	.db #0x0d	; 13
	.db #0x18	; 24
	.db #0x19	; 25
	.db #0x00	; 0
	.db #0x00	; 0
	.db #0x00	; 0
	.db #0x00	; 0
	.db #0x00	; 0
	.db #0x1a	; 26
	.db #0x1b	; 27
	.db #0x1c	; 28
	.db #0x1d	; 29
	.db #0x0d	; 13
	.db #0x1e	; 30
	.db #0x1f	; 31
	.db #0x20	; 32
	.db #0x21	; 33
	.db #0x22	; 34
	.db #0x00	; 0
	.db #0x00	; 0
	.db #0x23	; 35
	.db #0x24	; 36
	.db #0x25	; 37
	.db #0x26	; 38
	.db #0x27	; 39
	.db #0x28	; 40
	.db #0x29	; 41
	.db #0x29	; 41
	.db #0x29	; 41
	.db #0x2a	; 42
	.db #0x00	; 0
	.db #0x00	; 0
	.db #0x2b	; 43
	.db #0x29	; 41
	.db #0x2c	; 44
	.db #0x2d	; 45
	.db #0x2e	; 46
	.db #0x29	; 41
	.db #0x29	; 41
	.db #0x29	; 41
	.db #0x29	; 41
	.db #0x2f	; 47
	.db #0x00	; 0
	.db #0x00	; 0
	.db #0x30	; 48	'0'
	.db #0x29	; 41
	.db #0x31	; 49	'1'
	.db #0x32	; 50	'2'
	.db #0x33	; 51	'3'
	.db #0x29	; 41
	.db #0x29	; 41
	.db #0x29	; 41
	.db #0x29	; 41
	.db #0x34	; 52	'4'
	.db #0x35	; 53	'5'
	.db #0x00	; 0
	.db #0x29	; 41
	.db #0x29	; 41
	.db #0x36	; 54	'6'
	.db #0x37	; 55	'7'
	.db #0x38	; 56	'8'
	.db #0x39	; 57	'9'
	.db #0x3a	; 58
	.db #0x3b	; 59
	.db #0x29	; 41
	.db #0x29	; 41
	.db #0x3c	; 60
	.db #0x3d	; 61
	.db #0x29	; 41
	.db #0x29	; 41
	.db #0x3e	; 62
	.db #0x3f	; 63
	.db #0x40	; 64
	.db #0x41	; 65	'A'
	.db #0x42	; 66	'B'
	.db #0x43	; 67	'C'
	.db #0x29	; 41
	.db #0x29	; 41
	.db #0x29	; 41
	.db #0x44	; 68	'D'
_frequencies:
	.dw #0x002c
	.dw #0x009c
	.dw #0x0106
	.dw #0x016b
	.dw #0x01c9
	.dw #0x0223
	.dw #0x0277
	.dw #0x02c6
	.dw #0x0312
	.dw #0x0356
	.dw #0x039b
	.dw #0x03da
	.dw #0x0416
	.dw #0x044e
	.dw #0x0483
	.dw #0x04b5
	.dw #0x04e5
	.dw #0x0511
	.dw #0x053b
	.dw #0x0563
	.dw #0x0589
	.dw #0x05ac
	.dw #0x05ce
	.dw #0x05ed
	.dw #0x060a
	.dw #0x0627
	.dw #0x0642
	.dw #0x065b
	.dw #0x0672
	.dw #0x0689
	.dw #0x069e
	.dw #0x06b2
	.dw #0x06c4
	.dw #0x06d6
	.dw #0x06e7
	.dw #0x06f7
	.dw #0x0706
	.dw #0x0714
	.dw #0x0721
	.dw #0x072d
	.dw #0x0739
	.dw #0x0744
	.dw #0x074f
	.dw #0x0759
	.dw #0x0762
	.dw #0x076b
	.dw #0x0773
	.dw #0x077b
	.dw #0x0783
	.dw #0x078a
	.dw #0x0790
	.dw #0x0797
	.dw #0x079d
	.dw #0x07a2
	.dw #0x07a7
	.dw #0x07ac
	.dw #0x07b1
	.dw #0x07b6
	.dw #0x07ba
	.dw #0x07be
	.dw #0x07c1
	.dw #0x07c4
	.dw #0x07c8
	.dw #0x07cb
	.dw #0x07ce
	.dw #0x07d1
	.dw #0x07d4
	.dw #0x07d6
	.dw #0x07d9
	.dw #0x07db
	.dw #0x07dd
	.dw #0x07df
_music:
	.db #0x21	; 33
	.db #0x23	; 35
	.db #0x26	; 38
	.db #0x23	; 35
	.db #0x2a	; 42
	.db #0x2a	; 42
	.db #0x28	; 40
	.db #0x21	; 33
	.db #0x23	; 35
	.db #0x26	; 38
	.db #0x23	; 35
	.db #0x28	; 40
	.db #0x28	; 40
	.db #0x26	; 38
	.db #0x25	; 37
	.db #0x23	; 35
	.db #0x21	; 33
	.db #0x23	; 35
	.db #0x26	; 38
	.db #0x23	; 35
	.db #0x26	; 38
	.db #0x28	; 40
	.db #0x25	; 37
	.db #0x21	; 33
	.db #0x21	; 33
	.db #0x28	; 40
	.db #0x26	; 38
	.db #0x49	; 73	'I'
_length:
	.byte #0xfa, #0x00, #0x00, #0x00	;  250
	.byte #0xfa, #0x00, #0x00, #0x00	;  250
	.byte #0xfa, #0x00, #0x00, #0x00	;  250
	.byte #0xfa, #0x00, #0x00, #0x00	;  250
	.byte #0xf4, #0x01, #0x00, #0x00	;  500
	.byte #0xf4, #0x01, #0x00, #0x00	;  500
	.byte #0xbc, #0x02, #0x00, #0x00	;  700
	.byte #0xfa, #0x00, #0x00, #0x00	;  250
	.byte #0xfa, #0x00, #0x00, #0x00	;  250
	.byte #0xfa, #0x00, #0x00, #0x00	;  250
	.byte #0xfa, #0x00, #0x00, #0x00	;  250
	.byte #0xf4, #0x01, #0x00, #0x00	;  500
	.byte #0xf4, #0x01, #0x00, #0x00	;  500
	.byte #0xf4, #0x01, #0x00, #0x00	;  500
	.byte #0xc8, #0x00, #0x00, #0x00	;  200
	.byte #0xf4, #0x01, #0x00, #0x00	;  500
	.byte #0xfa, #0x00, #0x00, #0x00	;  250
	.byte #0xfa, #0x00, #0x00, #0x00	;  250
	.byte #0xfa, #0x00, #0x00, #0x00	;  250
	.byte #0xfa, #0x00, #0x00, #0x00	;  250
	.byte #0xf4, #0x01, #0x00, #0x00	;  500
	.byte #0x2c, #0x01, #0x00, #0x00	;  300
	.byte #0xf4, #0x01, #0x00, #0x00	;  500
	.byte #0xf4, #0x01, #0x00, #0x00	;  500
	.byte #0x2c, #0x01, #0x00, #0x00	;  300
	.byte #0xf4, #0x01, #0x00, #0x00	;  500
	.byte #0x2c, #0x01, #0x00, #0x00	;  300
	.area _CODE
	.area _INITIALIZER
	.area _CABS (ABS)
