;--------------------------------------------------------
; File Created by SDCC : free open source ANSI-C Compiler
; Version 4.1.6 #12539 (MINGW32)
;--------------------------------------------------------
	.module main
	.optsdcc -mgbz80
	
;--------------------------------------------------------
; Public variables in this module
;--------------------------------------------------------
	.globl _main
	.globl _set_sprite_data
	.globl _set_bkg_tiles
	.globl _set_bkg_data
	.globl _wait_vbl_done
	.globl _joypad
	.globl _keebArray
	.globl _messageLine
	.globl _messageLen
	.globl _message
	.globl _cursor
	.globl _keyboard
	.globl _dungeon
	.globl _cursorSPR
	.globl _tiles
	.globl _alpha
	.globl _buttons
	.globl _noWalk
	.globl _cursorCoords
	.globl _init
	.globl _updateSwitches
	.globl _checkInput
	.globl _collisionCheck
	.globl _printString
	.globl _updateCursor
	.globl _updateString
;--------------------------------------------------------
; special function registers
;--------------------------------------------------------
;--------------------------------------------------------
; ram data
;--------------------------------------------------------
	.area _DATA
_cursorCoords::
	.ds 4
_noWalk::
	.ds 2
_buttons::
	.ds 8
;--------------------------------------------------------
; ram data
;--------------------------------------------------------
	.area _INITIALIZED
_alpha::
	.ds 768
_tiles::
	.ds 960
_cursorSPR::
	.ds 16
_dungeon::
	.ds 360
_keyboard::
	.ds 360
_cursor::
	.ds 4
_message::
	.ds 20
_messageLen::
	.ds 2
_messageLine::
	.ds 2
_keebArray::
	.ds 40
;--------------------------------------------------------
; absolute external ram data
;--------------------------------------------------------
	.area _DABS (ABS)
;--------------------------------------------------------
; global & static initialisations
;--------------------------------------------------------
	.area _HOME
	.area _GSINIT
	.area _GSFINAL
	.area _GSINIT
;--------------------------------------------------------
; Home
;--------------------------------------------------------
	.area _HOME
	.area _HOME
;--------------------------------------------------------
; code
;--------------------------------------------------------
	.area _CODE
;main.c:37: void main() {
;	---------------------------------
; Function main
; ---------------------------------
_main::
;main.c:39: init();
	call	_init
;main.c:41: while(1) {
00102$:
;main.c:43: checkInput();				// Check for user input (and act on it)
	call	_checkInput
;main.c:44: updateSwitches();			// Make sure the SHOW_SPRITES and SHOW_BKG switches are on each loop
	call	_updateSwitches
;main.c:45: wait_vbl_done();			// Wait until VBLANK to avoid corrupting memory
	call	_wait_vbl_done
;main.c:48: }
	jr	00102$
;main.c:50: void init() {
;	---------------------------------
; Function init
; ---------------------------------
_init::
;main.c:52: DISPLAY_ON;						// Turn on the display
	ldh	a, (_LCDC_REG + 0)
	or	a, #0x80
	ldh	(_LCDC_REG + 0), a
;main.c:53: set_bkg_data(0, 49, alpha);		// Load 47 tiles into background memory
	ld	de, #_alpha
	push	de
	ld	hl, #0x3100
	push	hl
	call	_set_bkg_data
	add	sp, #4
;main.c:57: set_bkg_tiles(0,0,20,18,keyboard);			
	ld	de, #_keyboard
	push	de
	ld	hl, #0x1214
	push	hl
	xor	a, a
	rrca
	push	af
	call	_set_bkg_tiles
	add	sp, #6
;main.c:59: printString(message, messageLen);
	ld	hl, #_messageLen
	ld	a, (hl+)
	ld	e, a
	ld	d, (hl)
	push	de
	ld	de, #_message
	push	de
	call	_printString
	add	sp, #4
;main.c:62: set_sprite_data(0, 1, cursorSPR);
	ld	de, #_cursorSPR
	push	de
	xor	a, a
	inc	a
	push	af
	call	_set_sprite_data
	add	sp, #4
;C:/gbdk/include/gb/gb.h:1326: shadow_OAM[nb].tile=tile;
	ld	hl, #(_shadow_OAM + 2)
	ld	(hl), #0x00
;main.c:67: cursor[0] = 0;
	ld	hl, #_cursor
	xor	a, a
	ld	(hl+), a
	ld	(hl), a
;main.c:68: cursor[1] = 0;
	ld	hl, #(_cursor + 2)
	xor	a, a
	ld	(hl+), a
	ld	(hl), a
;main.c:69: }
	ret
;main.c:71: void updateSwitches() {
;	---------------------------------
; Function updateSwitches
; ---------------------------------
_updateSwitches::
;main.c:73: HIDE_WIN;
	ldh	a, (_LCDC_REG + 0)
	and	a, #0xdf
	ldh	(_LCDC_REG + 0), a
;main.c:74: SHOW_SPRITES;
	ldh	a, (_LCDC_REG + 0)
	or	a, #0x02
	ldh	(_LCDC_REG + 0), a
;main.c:75: SHOW_BKG;
	ldh	a, (_LCDC_REG + 0)
	or	a, #0x01
	ldh	(_LCDC_REG + 0), a
;main.c:77: }
	ret
;main.c:79: void checkInput() {
;	---------------------------------
; Function checkInput
; ---------------------------------
_checkInput::
;main.c:81: if (joypad() & J_B) {
	call	_joypad
	bit	5, e
	jr	Z, 00105$
;main.c:82: if (buttons[5] == false) {
	ld	bc, #_buttons+5
	ld	a, (bc)
	bit	0,a
	jr	NZ, 00106$
;main.c:83: buttons[5] = true;
	ld	a, #0x01
	ld	(bc), a
;main.c:84: for(int i = 0; i < messageLen; i++) {
	ld	bc, #0x0000
00134$:
	ld	hl, #_messageLen
	ld	a, c
	sub	a, (hl)
	inc	hl
	ld	a, b
	sbc	a, (hl)
	ld	a, b
	ld	d, a
	bit	7, (hl)
	jr	Z, 00210$
	bit	7, d
	jr	NZ, 00211$
	cp	a, a
	jr	00211$
00210$:
	bit	7, d
	jr	Z, 00211$
	scf
00211$:
	jr	NC, 00101$
;main.c:85: message[i] = 0xFF;
	ld	hl, #_message
	add	hl, bc
	ld	(hl), #0xff
;main.c:84: for(int i = 0; i < messageLen; i++) {
	inc	bc
	jr	00134$
00101$:
;main.c:87: messageLen = 0;
	xor	a, a
	ld	hl, #_messageLen
	ld	(hl+), a
	ld	(hl), a
;main.c:88: messageLine ++;
	ld	hl, #_messageLine
	inc	(hl)
	jr	NZ, 00106$
	inc	hl
	inc	(hl)
	jr	00106$
00105$:
;main.c:92: buttons[5] = false;
	ld	hl, #(_buttons + 5)
	ld	(hl), #0x00
00106$:
;main.c:96: if (joypad() & J_A) {
	call	_joypad
	bit	4, e
	jr	Z, 00110$
;main.c:97: if (buttons[4] == false) {
	ld	bc, #_buttons+4
	ld	a, (bc)
	bit	0,a
	jr	NZ, 00111$
;main.c:98: buttons[4] = true;
	ld	a, #0x01
	ld	(bc), a
;main.c:99: updateString();
	call	_updateString
	jr	00111$
00110$:
;main.c:104: buttons[4] = false;
	ld	hl, #(_buttons + 4)
	ld	(hl), #0x00
00111$:
;main.c:107: if (joypad() & J_UP) {
	call	_joypad
	bit	2, e
	jr	Z, 00115$
;main.c:108: if (buttons[1] == false) {
	ld	bc, #_buttons+1
	ld	a, (bc)
	bit	0,a
	jr	NZ, 00116$
;main.c:109: buttons[1] = true;
	ld	a, #0x01
	ld	(bc), a
;main.c:110: cursor[1] = cursor[1] - 1;
	ld	hl, #(_cursor + 2)
	ld	a, (hl+)
	ld	c, a
	ld	b, (hl)
	dec	bc
	ld	hl, #(_cursor + 2)
	ld	a, c
	ld	(hl+), a
	ld	(hl), b
	jr	00116$
00115$:
;main.c:115: buttons[1] = false;
	ld	hl, #(_buttons + 1)
	ld	(hl), #0x00
00116$:
;main.c:119: if (joypad() & J_DOWN) {
	call	_joypad
	bit	3, e
	jr	Z, 00120$
;main.c:120: if (buttons[2] == false) {
	ld	bc, #_buttons+2
	ld	a, (bc)
	bit	0,a
	jr	NZ, 00121$
;main.c:121: buttons[2] = true;
	ld	a, #0x01
	ld	(bc), a
;main.c:122: cursor[1]++;
	ld	hl, #(_cursor + 2)
	ld	a, (hl+)
	ld	c, a
	ld	b, (hl)
	inc	bc
	ld	hl, #(_cursor + 2)
	ld	a, c
	ld	(hl+), a
	ld	(hl), b
	jr	00121$
00120$:
;main.c:128: buttons[2] = false;
	ld	hl, #(_buttons + 2)
	ld	(hl), #0x00
00121$:
;main.c:132: if (joypad() & J_LEFT) {
	call	_joypad
	bit	1, e
	jr	Z, 00125$
;main.c:133: if (buttons[3] == false) {
	ld	bc, #_buttons+3
	ld	a, (bc)
	bit	0,a
	jr	NZ, 00126$
;main.c:134: buttons[3] = true;
	ld	a, #0x01
	ld	(bc), a
;main.c:135: cursor[0] = cursor[0] - 1;
	ld	hl, #_cursor
	ld	a, (hl+)
	ld	c, a
	ld	b, (hl)
	dec	bc
	ld	hl, #_cursor
	ld	a, c
	ld	(hl+), a
	ld	(hl), b
	jr	00126$
00125$:
;main.c:141: buttons[3] = false;
	ld	hl, #(_buttons + 3)
	ld	(hl), #0x00
00126$:
;main.c:145: if (joypad() & J_RIGHT) {
	call	_joypad
	ld	a, e
	rrca
	jr	NC, 00130$
;main.c:146: if (buttons[0] == false) {
	ld	bc, #_buttons+0
	ld	a, (bc)
	bit	0,a
	jr	NZ, 00131$
;main.c:147: buttons[0] = true;
	ld	a, #0x01
	ld	(bc), a
;main.c:148: cursor[0]++;
	ld	hl, #_cursor
	ld	a, (hl+)
	ld	c, a
	ld	b, (hl)
	inc	bc
	ld	hl, #_cursor
	ld	a, c
	ld	(hl+), a
	ld	(hl), b
	jr	00131$
00130$:
;main.c:153: buttons[0] = false;
	ld	hl, #_buttons
	ld	(hl), #0x00
00131$:
;main.c:158: updateCursor();
	call	_updateCursor
;main.c:159: move_sprite(0, cursorCoords[0], cursorCoords[1]);
	ld	hl, #(_cursorCoords + 2)
	ld	c, (hl)
	ld	hl, #_cursorCoords
	ld	b, (hl)
;C:/gbdk/include/gb/gb.h:1399: OAM_item_t * itm = &shadow_OAM[nb];
	ld	hl, #_shadow_OAM
;C:/gbdk/include/gb/gb.h:1400: itm->y=y, itm->x=x;
	ld	a, c
	ld	(hl+), a
	ld	(hl), b
;main.c:159: move_sprite(0, cursorCoords[0], cursorCoords[1]);
;main.c:160: }
	ret
;main.c:164: int collisionCheck(int x1, int y1, int w1, int h1, int x2, int y2, int w2, int h2) {
;	---------------------------------
; Function collisionCheck
; ---------------------------------
_collisionCheck::
;main.c:166: if ((x1 < (x2+w2)) && ((x1+w1) > x2) && (y1 < (h2+y2)) && ((y1+h1) > y2)) {
	ldhl	sp,#10
	ld	a, (hl+)
	ld	e, a
	ld	d, (hl)
	ldhl	sp,	#14
	ld	a,	(hl+)
	ld	h, (hl)
	ld	l, a
	add	hl, de
	ld	c, l
	ld	b, h
	ldhl	sp,	#2
	ld	a, (hl+)
	sub	a, c
	ld	a, (hl)
	sbc	a, b
	ld	d, (hl)
	ld	a, b
	bit	7,a
	jr	Z, 00129$
	bit	7, d
	jr	NZ, 00130$
	cp	a, a
	jr	00130$
00129$:
	bit	7, d
	jr	Z, 00130$
	scf
00130$:
	jr	NC, 00102$
	ldhl	sp,#2
	ld	a, (hl+)
	ld	e, a
	ld	d, (hl)
	ldhl	sp,	#6
	ld	a,	(hl+)
	ld	h, (hl)
	ld	l, a
	add	hl, de
	ld	c, l
	ld	b, h
	ldhl	sp,	#10
	ld	a, (hl+)
	sub	a, c
	ld	a, (hl)
	sbc	a, b
	ld	d, (hl)
	ld	a, b
	bit	7,a
	jr	Z, 00131$
	bit	7, d
	jr	NZ, 00132$
	cp	a, a
	jr	00132$
00131$:
	bit	7, d
	jr	Z, 00132$
	scf
00132$:
	jr	NC, 00102$
	ldhl	sp,#16
	ld	a, (hl+)
	ld	e, a
	ld	d, (hl)
	ldhl	sp,	#12
	ld	a,	(hl+)
	ld	h, (hl)
	ld	l, a
	add	hl, de
	ld	c, l
	ld	b, h
	ldhl	sp,	#4
	ld	a, (hl+)
	sub	a, c
	ld	a, (hl)
	sbc	a, b
	ld	d, (hl)
	ld	a, b
	bit	7,a
	jr	Z, 00133$
	bit	7, d
	jr	NZ, 00134$
	cp	a, a
	jr	00134$
00133$:
	bit	7, d
	jr	Z, 00134$
	scf
00134$:
	jr	NC, 00102$
	ldhl	sp,#4
	ld	a, (hl+)
	ld	e, a
	ld	d, (hl)
	ldhl	sp,	#8
	ld	a,	(hl+)
	ld	h, (hl)
	ld	l, a
	add	hl, de
	ld	c, l
	ld	b, h
	ldhl	sp,	#12
	ld	a, (hl+)
	sub	a, c
	ld	a, (hl)
	sbc	a, b
	ld	d, (hl)
	ld	a, b
	bit	7,a
	jr	Z, 00135$
	bit	7, d
	jr	NZ, 00136$
	cp	a, a
	jr	00136$
00135$:
	bit	7, d
	jr	Z, 00136$
	scf
00136$:
	jr	NC, 00102$
;main.c:168: return 1;
	ld	de, #0x0001
	ret
00102$:
;main.c:172: return 0;
	ld	de, #0x0000
;main.c:176: }
	ret
;main.c:178: void printString(char string[], int len) {
;	---------------------------------
; Function printString
; ---------------------------------
_printString::
;main.c:180: set_bkg_tiles(0,messageLine, len + 1 , 1, string);	
	ldhl	sp,	#4
	ld	b, (hl)
	inc	b
	ld	a, (#_messageLine)
	ldhl	sp,	#2
	ld	e, (hl)
	inc	hl
	ld	d, (hl)
	push	de
	ld	h, #0x01
;	spillPairReg hl
;	spillPairReg hl
	ld	l, b
	push	hl
	ld	h, a
	ld	l, #0x00
	push	hl
	call	_set_bkg_tiles
	add	sp, #6
;main.c:181: }
	ret
;main.c:183: void updateCursor() {
;	---------------------------------
; Function updateCursor
; ---------------------------------
_updateCursor::
;main.c:186: cursorCoords[0] = (cursor[0] * 16) + basex;
	ld	hl, #_cursor
	ld	a,	(hl+)
	ld	h, (hl)
;	spillPairReg hl
	ld	l, a
;	spillPairReg hl
;	spillPairReg hl
	add	hl, hl
	add	hl, hl
	add	hl, hl
	add	hl, hl
	ld	a, l
	ld	b, h
	add	a, #0x08
	ld	c, a
	jr	NC, 00110$
	inc	b
00110$:
	ld	hl, #_cursorCoords
	ld	a, c
	ld	(hl+), a
	ld	(hl), b
;main.c:187: if(cursor[1] > 1) {
	ld	hl, #(_cursor + 2)
	ld	a, (hl+)
	ld	c, a
	ld	b, (hl)
	ld	e, b
	ld	d, #0x00
	ld	a, #0x01
	cp	a, c
	ld	a, #0x00
	sbc	a, b
	bit	7, e
	jr	Z, 00111$
	bit	7, d
	jr	NZ, 00112$
	cp	a, a
	jr	00112$
00111$:
	bit	7, d
	jr	Z, 00112$
	scf
00112$:
	jr	NC, 00102$
;main.c:188: cursorCoords[0] = cursorCoords[0]  + ((cursor[1] - 1) * 8);
	ld	hl, #_cursorCoords
	ld	a,	(hl+)
	ld	h, (hl)
;	spillPairReg hl
	ld	l, a
;	spillPairReg hl
;	spillPairReg hl
	dec	bc
	ld	a, c
	add	a, a
	rl	b
	add	a, a
	rl	b
	add	a, a
	rl	b
	add	a, l
	ld	c, a
	ld	a, b
	adc	a, h
	ld	b, a
	ld	hl, #_cursorCoords
	ld	a, c
	ld	(hl+), a
	ld	(hl), b
00102$:
;main.c:190: cursorCoords[1] = (cursor[1] * 16) + basey;
	ld	hl, #(_cursor + 2)
	ld	a,	(hl+)
	ld	h, (hl)
;	spillPairReg hl
	ld	l, a
;	spillPairReg hl
;	spillPairReg hl
	add	hl, hl
	add	hl, hl
	add	hl, hl
	add	hl, hl
	ld	a, l
	ld	b, h
	add	a, #0x60
	ld	c, a
	jr	NC, 00114$
	inc	b
00114$:
	ld	hl, #(_cursorCoords + 2)
	ld	a, c
	ld	(hl+), a
	ld	(hl), b
;main.c:191: }
	ret
;main.c:193: void updateString() {
;	---------------------------------
; Function updateString
; ---------------------------------
_updateString::
	dec	sp
	dec	sp
;main.c:194: message[messageLen] = keebArray[cursor[1]][cursor[0]];
	ld	de, #_message
	ld	hl, #_messageLen
	ld	a,	(hl+)
	ld	h, (hl)
	ld	l, a
	add	hl, de
	inc	sp
	inc	sp
	push	hl
	ld	bc, #_keebArray+0
	ld	hl, #_cursor + 2
	ld	a,	(hl+)
	ld	h, (hl)
;	spillPairReg hl
	ld	l, a
;	spillPairReg hl
;	spillPairReg hl
	ld	e, l
	ld	d, h
	add	hl, hl
	add	hl, hl
	add	hl, de
	add	hl, hl
	add	hl, bc
	ld	c, l
	ld	b, h
	ld	hl, #_cursor
	ld	a,	(hl+)
	ld	h, (hl)
;	spillPairReg hl
	ld	l, a
;	spillPairReg hl
;	spillPairReg hl
	add	hl, bc
	ld	c, (hl)
	pop	hl
	push	hl
	ld	(hl), c
;main.c:195: messageLen ++;
	ld	hl, #_messageLen
	inc	(hl)
	jr	NZ, 00103$
	inc	hl
	inc	(hl)
00103$:
;main.c:196: printString(message, messageLen);
	ld	hl, #_messageLen
	ld	a, (hl+)
	ld	e, a
	ld	d, (hl)
	push	de
	ld	de, #_message
	push	de
	call	_printString
;main.c:197: }
	add	sp, #6
	ret
	.area _CODE
	.area _INITIALIZER
__xinit__alpha:
	.db #0x7c	; 124
	.db #0x7c	; 124
	.db #0x86	; 134
	.db #0x86	; 134
	.db #0x8a	; 138
	.db #0x8a	; 138
	.db #0x92	; 146
	.db #0x92	; 146
	.db #0xa2	; 162
	.db #0xa2	; 162
	.db #0xc2	; 194
	.db #0xc2	; 194
	.db #0x7c	; 124
	.db #0x7c	; 124
	.db #0x00	; 0
	.db #0x00	; 0
	.db #0x10	; 16
	.db #0x10	; 16
	.db #0x30	; 48	'0'
	.db #0x30	; 48	'0'
	.db #0x10	; 16
	.db #0x10	; 16
	.db #0x10	; 16
	.db #0x10	; 16
	.db #0x10	; 16
	.db #0x10	; 16
	.db #0x10	; 16
	.db #0x10	; 16
	.db #0x7c	; 124
	.db #0x7c	; 124
	.db #0x00	; 0
	.db #0x00	; 0
	.db #0x7c	; 124
	.db #0x7c	; 124
	.db #0x82	; 130
	.db #0x82	; 130
	.db #0x02	; 2
	.db #0x02	; 2
	.db #0x1c	; 28
	.db #0x1c	; 28
	.db #0x60	; 96
	.db #0x60	; 96
	.db #0x80	; 128
	.db #0x80	; 128
	.db #0xfe	; 254
	.db #0xfe	; 254
	.db #0x00	; 0
	.db #0x00	; 0
	.db #0xfe	; 254
	.db #0xfe	; 254
	.db #0x04	; 4
	.db #0x04	; 4
	.db #0x18	; 24
	.db #0x18	; 24
	.db #0x04	; 4
	.db #0x04	; 4
	.db #0x02	; 2
	.db #0x02	; 2
	.db #0x82	; 130
	.db #0x82	; 130
	.db #0x7c	; 124
	.db #0x7c	; 124
	.db #0x00	; 0
	.db #0x00	; 0
	.db #0x0c	; 12
	.db #0x0c	; 12
	.db #0x14	; 20
	.db #0x14	; 20
	.db #0x24	; 36
	.db #0x24	; 36
	.db #0x44	; 68	'D'
	.db #0x44	; 68	'D'
	.db #0x84	; 132
	.db #0x84	; 132
	.db #0xfe	; 254
	.db #0xfe	; 254
	.db #0x04	; 4
	.db #0x04	; 4
	.db #0x00	; 0
	.db #0x00	; 0
	.db #0xfc	; 252
	.db #0xfc	; 252
	.db #0x80	; 128
	.db #0x80	; 128
	.db #0xfc	; 252
	.db #0xfc	; 252
	.db #0x02	; 2
	.db #0x02	; 2
	.db #0x02	; 2
	.db #0x02	; 2
	.db #0x82	; 130
	.db #0x82	; 130
	.db #0x7c	; 124
	.db #0x7c	; 124
	.db #0x00	; 0
	.db #0x00	; 0
	.db #0x7c	; 124
	.db #0x7c	; 124
	.db #0x80	; 128
	.db #0x80	; 128
	.db #0x80	; 128
	.db #0x80	; 128
	.db #0xfc	; 252
	.db #0xfc	; 252
	.db #0x82	; 130
	.db #0x82	; 130
	.db #0x82	; 130
	.db #0x82	; 130
	.db #0x7c	; 124
	.db #0x7c	; 124
	.db #0x00	; 0
	.db #0x00	; 0
	.db #0xfe	; 254
	.db #0xfe	; 254
	.db #0x82	; 130
	.db #0x82	; 130
	.db #0x04	; 4
	.db #0x04	; 4
	.db #0x08	; 8
	.db #0x08	; 8
	.db #0x10	; 16
	.db #0x10	; 16
	.db #0x10	; 16
	.db #0x10	; 16
	.db #0x10	; 16
	.db #0x10	; 16
	.db #0x00	; 0
	.db #0x00	; 0
	.db #0x7c	; 124
	.db #0x7c	; 124
	.db #0x82	; 130
	.db #0x82	; 130
	.db #0x82	; 130
	.db #0x82	; 130
	.db #0x7c	; 124
	.db #0x7c	; 124
	.db #0x82	; 130
	.db #0x82	; 130
	.db #0x82	; 130
	.db #0x82	; 130
	.db #0x7c	; 124
	.db #0x7c	; 124
	.db #0x00	; 0
	.db #0x00	; 0
	.db #0x7c	; 124
	.db #0x7c	; 124
	.db #0x82	; 130
	.db #0x82	; 130
	.db #0x82	; 130
	.db #0x82	; 130
	.db #0x7e	; 126
	.db #0x7e	; 126
	.db #0x02	; 2
	.db #0x02	; 2
	.db #0x02	; 2
	.db #0x02	; 2
	.db #0x7c	; 124
	.db #0x7c	; 124
	.db #0x00	; 0
	.db #0x00	; 0
	.db #0x00	; 0
	.db #0x00	; 0
	.db #0x30	; 48	'0'
	.db #0x30	; 48	'0'
	.db #0x30	; 48	'0'
	.db #0x30	; 48	'0'
	.db #0x00	; 0
	.db #0x00	; 0
	.db #0x30	; 48	'0'
	.db #0x30	; 48	'0'
	.db #0x30	; 48	'0'
	.db #0x30	; 48	'0'
	.db #0x00	; 0
	.db #0x00	; 0
	.db #0x00	; 0
	.db #0x00	; 0
	.db #0x08	; 8
	.db #0x08	; 8
	.db #0x2e	; 46
	.db #0x2e	; 46
	.db #0xf8	; 248
	.db #0xf8	; 248
	.db #0x28	; 40
	.db #0x28	; 40
	.db #0x3e	; 62
	.db #0x3e	; 62
	.db #0xe8	; 232
	.db #0xe8	; 232
	.db #0x20	; 32
	.db #0x20	; 32
	.db #0x00	; 0
	.db #0x00	; 0
	.db #0x08	; 8
	.db #0x08	; 8
	.db #0x10	; 16
	.db #0x10	; 16
	.db #0x20	; 32
	.db #0x20	; 32
	.db #0x40	; 64
	.db #0x40	; 64
	.db #0x20	; 32
	.db #0x20	; 32
	.db #0x10	; 16
	.db #0x10	; 16
	.db #0x08	; 8
	.db #0x08	; 8
	.db #0x00	; 0
	.db #0x00	; 0
	.db #0x00	; 0
	.db #0x00	; 0
	.db #0x00	; 0
	.db #0x00	; 0
	.db #0x7c	; 124
	.db #0x7c	; 124
	.db #0x00	; 0
	.db #0x00	; 0
	.db #0x7c	; 124
	.db #0x7c	; 124
	.db #0x00	; 0
	.db #0x00	; 0
	.db #0x00	; 0
	.db #0x00	; 0
	.db #0x00	; 0
	.db #0x00	; 0
	.db #0x20	; 32
	.db #0x20	; 32
	.db #0x10	; 16
	.db #0x10	; 16
	.db #0x08	; 8
	.db #0x08	; 8
	.db #0x04	; 4
	.db #0x04	; 4
	.db #0x08	; 8
	.db #0x08	; 8
	.db #0x10	; 16
	.db #0x10	; 16
	.db #0x20	; 32
	.db #0x20	; 32
	.db #0x00	; 0
	.db #0x00	; 0
	.db #0x3c	; 60
	.db #0x3c	; 60
	.db #0x42	; 66	'B'
	.db #0x42	; 66	'B'
	.db #0x02	; 2
	.db #0x02	; 2
	.db #0x0c	; 12
	.db #0x0c	; 12
	.db #0x10	; 16
	.db #0x10	; 16
	.db #0x00	; 0
	.db #0x00	; 0
	.db #0x10	; 16
	.db #0x10	; 16
	.db #0x00	; 0
	.db #0x00	; 0
	.db #0x7c	; 124
	.db #0x7c	; 124
	.db #0x82	; 130
	.db #0x82	; 130
	.db #0x9a	; 154
	.db #0x9a	; 154
	.db #0xaa	; 170
	.db #0xaa	; 170
	.db #0xbc	; 188
	.db #0xbc	; 188
	.db #0x80	; 128
	.db #0x80	; 128
	.db #0x7c	; 124
	.db #0x7c	; 124
	.db #0x00	; 0
	.db #0x00	; 0
	.db #0x38	; 56	'8'
	.db #0x38	; 56	'8'
	.db #0x44	; 68	'D'
	.db #0x44	; 68	'D'
	.db #0x82	; 130
	.db #0x82	; 130
	.db #0x82	; 130
	.db #0x82	; 130
	.db #0xfe	; 254
	.db #0xfe	; 254
	.db #0x82	; 130
	.db #0x82	; 130
	.db #0x82	; 130
	.db #0x82	; 130
	.db #0x00	; 0
	.db #0x00	; 0
	.db #0xfc	; 252
	.db #0xfc	; 252
	.db #0x82	; 130
	.db #0x82	; 130
	.db #0x82	; 130
	.db #0x82	; 130
	.db #0xfc	; 252
	.db #0xfc	; 252
	.db #0x82	; 130
	.db #0x82	; 130
	.db #0x82	; 130
	.db #0x82	; 130
	.db #0xfc	; 252
	.db #0xfc	; 252
	.db #0x00	; 0
	.db #0x00	; 0
	.db #0x7c	; 124
	.db #0x7c	; 124
	.db #0x82	; 130
	.db #0x82	; 130
	.db #0x80	; 128
	.db #0x80	; 128
	.db #0x80	; 128
	.db #0x80	; 128
	.db #0x80	; 128
	.db #0x80	; 128
	.db #0x82	; 130
	.db #0x82	; 130
	.db #0x7c	; 124
	.db #0x7c	; 124
	.db #0x00	; 0
	.db #0x00	; 0
	.db #0xf8	; 248
	.db #0xf8	; 248
	.db #0x84	; 132
	.db #0x84	; 132
	.db #0x82	; 130
	.db #0x82	; 130
	.db #0x82	; 130
	.db #0x82	; 130
	.db #0x82	; 130
	.db #0x82	; 130
	.db #0x84	; 132
	.db #0x84	; 132
	.db #0xf8	; 248
	.db #0xf8	; 248
	.db #0x00	; 0
	.db #0x00	; 0
	.db #0xfe	; 254
	.db #0xfe	; 254
	.db #0x80	; 128
	.db #0x80	; 128
	.db #0x80	; 128
	.db #0x80	; 128
	.db #0xfc	; 252
	.db #0xfc	; 252
	.db #0x80	; 128
	.db #0x80	; 128
	.db #0x80	; 128
	.db #0x80	; 128
	.db #0xfe	; 254
	.db #0xfe	; 254
	.db #0x00	; 0
	.db #0x00	; 0
	.db #0xfe	; 254
	.db #0xfe	; 254
	.db #0x80	; 128
	.db #0x80	; 128
	.db #0x80	; 128
	.db #0x80	; 128
	.db #0xfc	; 252
	.db #0xfc	; 252
	.db #0x80	; 128
	.db #0x80	; 128
	.db #0x80	; 128
	.db #0x80	; 128
	.db #0x80	; 128
	.db #0x80	; 128
	.db #0x00	; 0
	.db #0x00	; 0
	.db #0x7c	; 124
	.db #0x7c	; 124
	.db #0x82	; 130
	.db #0x82	; 130
	.db #0x80	; 128
	.db #0x80	; 128
	.db #0x80	; 128
	.db #0x80	; 128
	.db #0x8e	; 142
	.db #0x8e	; 142
	.db #0x82	; 130
	.db #0x82	; 130
	.db #0x7e	; 126
	.db #0x7e	; 126
	.db #0x00	; 0
	.db #0x00	; 0
	.db #0x82	; 130
	.db #0x82	; 130
	.db #0x82	; 130
	.db #0x82	; 130
	.db #0x82	; 130
	.db #0x82	; 130
	.db #0xfe	; 254
	.db #0xfe	; 254
	.db #0x82	; 130
	.db #0x82	; 130
	.db #0x82	; 130
	.db #0x82	; 130
	.db #0x82	; 130
	.db #0x82	; 130
	.db #0x00	; 0
	.db #0x00	; 0
	.db #0x7c	; 124
	.db #0x7c	; 124
	.db #0x10	; 16
	.db #0x10	; 16
	.db #0x10	; 16
	.db #0x10	; 16
	.db #0x10	; 16
	.db #0x10	; 16
	.db #0x10	; 16
	.db #0x10	; 16
	.db #0x10	; 16
	.db #0x10	; 16
	.db #0x7c	; 124
	.db #0x7c	; 124
	.db #0x00	; 0
	.db #0x00	; 0
	.db #0x1e	; 30
	.db #0x1e	; 30
	.db #0x04	; 4
	.db #0x04	; 4
	.db #0x04	; 4
	.db #0x04	; 4
	.db #0x04	; 4
	.db #0x04	; 4
	.db #0x04	; 4
	.db #0x04	; 4
	.db #0x84	; 132
	.db #0x84	; 132
	.db #0x78	; 120	'x'
	.db #0x78	; 120	'x'
	.db #0x00	; 0
	.db #0x00	; 0
	.db #0x84	; 132
	.db #0x84	; 132
	.db #0x88	; 136
	.db #0x88	; 136
	.db #0x90	; 144
	.db #0x90	; 144
	.db #0xf0	; 240
	.db #0xf0	; 240
	.db #0x88	; 136
	.db #0x88	; 136
	.db #0x84	; 132
	.db #0x84	; 132
	.db #0x82	; 130
	.db #0x82	; 130
	.db #0x00	; 0
	.db #0x00	; 0
	.db #0x40	; 64
	.db #0x40	; 64
	.db #0x40	; 64
	.db #0x40	; 64
	.db #0x40	; 64
	.db #0x40	; 64
	.db #0x40	; 64
	.db #0x40	; 64
	.db #0x40	; 64
	.db #0x40	; 64
	.db #0x40	; 64
	.db #0x40	; 64
	.db #0x7e	; 126
	.db #0x7e	; 126
	.db #0x00	; 0
	.db #0x00	; 0
	.db #0x82	; 130
	.db #0x82	; 130
	.db #0xc6	; 198
	.db #0xc6	; 198
	.db #0xaa	; 170
	.db #0xaa	; 170
	.db #0x92	; 146
	.db #0x92	; 146
	.db #0x82	; 130
	.db #0x82	; 130
	.db #0x82	; 130
	.db #0x82	; 130
	.db #0x82	; 130
	.db #0x82	; 130
	.db #0x00	; 0
	.db #0x00	; 0
	.db #0x82	; 130
	.db #0x82	; 130
	.db #0xc2	; 194
	.db #0xc2	; 194
	.db #0xa2	; 162
	.db #0xa2	; 162
	.db #0x92	; 146
	.db #0x92	; 146
	.db #0x8a	; 138
	.db #0x8a	; 138
	.db #0x86	; 134
	.db #0x86	; 134
	.db #0x82	; 130
	.db #0x82	; 130
	.db #0x00	; 0
	.db #0x00	; 0
	.db #0x7c	; 124
	.db #0x7c	; 124
	.db #0x82	; 130
	.db #0x82	; 130
	.db #0x82	; 130
	.db #0x82	; 130
	.db #0x82	; 130
	.db #0x82	; 130
	.db #0x82	; 130
	.db #0x82	; 130
	.db #0x82	; 130
	.db #0x82	; 130
	.db #0x7c	; 124
	.db #0x7c	; 124
	.db #0x00	; 0
	.db #0x00	; 0
	.db #0xfc	; 252
	.db #0xfc	; 252
	.db #0x82	; 130
	.db #0x82	; 130
	.db #0x82	; 130
	.db #0x82	; 130
	.db #0x82	; 130
	.db #0x82	; 130
	.db #0xfc	; 252
	.db #0xfc	; 252
	.db #0x80	; 128
	.db #0x80	; 128
	.db #0x80	; 128
	.db #0x80	; 128
	.db #0x00	; 0
	.db #0x00	; 0
	.db #0x7c	; 124
	.db #0x7c	; 124
	.db #0x82	; 130
	.db #0x82	; 130
	.db #0x82	; 130
	.db #0x82	; 130
	.db #0x92	; 146
	.db #0x92	; 146
	.db #0x8a	; 138
	.db #0x8a	; 138
	.db #0x84	; 132
	.db #0x84	; 132
	.db #0x7a	; 122	'z'
	.db #0x7a	; 122	'z'
	.db #0x00	; 0
	.db #0x00	; 0
	.db #0xfc	; 252
	.db #0xfc	; 252
	.db #0x82	; 130
	.db #0x82	; 130
	.db #0x82	; 130
	.db #0x82	; 130
	.db #0x84	; 132
	.db #0x84	; 132
	.db #0xf8	; 248
	.db #0xf8	; 248
	.db #0x84	; 132
	.db #0x84	; 132
	.db #0x82	; 130
	.db #0x82	; 130
	.db #0x00	; 0
	.db #0x00	; 0
	.db #0x7c	; 124
	.db #0x7c	; 124
	.db #0x80	; 128
	.db #0x80	; 128
	.db #0x80	; 128
	.db #0x80	; 128
	.db #0x7c	; 124
	.db #0x7c	; 124
	.db #0x02	; 2
	.db #0x02	; 2
	.db #0x02	; 2
	.db #0x02	; 2
	.db #0xfc	; 252
	.db #0xfc	; 252
	.db #0x00	; 0
	.db #0x00	; 0
	.db #0xfe	; 254
	.db #0xfe	; 254
	.db #0x10	; 16
	.db #0x10	; 16
	.db #0x10	; 16
	.db #0x10	; 16
	.db #0x10	; 16
	.db #0x10	; 16
	.db #0x10	; 16
	.db #0x10	; 16
	.db #0x10	; 16
	.db #0x10	; 16
	.db #0x10	; 16
	.db #0x10	; 16
	.db #0x00	; 0
	.db #0x00	; 0
	.db #0x82	; 130
	.db #0x82	; 130
	.db #0x82	; 130
	.db #0x82	; 130
	.db #0x82	; 130
	.db #0x82	; 130
	.db #0x82	; 130
	.db #0x82	; 130
	.db #0x82	; 130
	.db #0x82	; 130
	.db #0x82	; 130
	.db #0x82	; 130
	.db #0x7c	; 124
	.db #0x7c	; 124
	.db #0x00	; 0
	.db #0x00	; 0
	.db #0x82	; 130
	.db #0x82	; 130
	.db #0x82	; 130
	.db #0x82	; 130
	.db #0x82	; 130
	.db #0x82	; 130
	.db #0x82	; 130
	.db #0x82	; 130
	.db #0x44	; 68	'D'
	.db #0x44	; 68	'D'
	.db #0x28	; 40
	.db #0x28	; 40
	.db #0x10	; 16
	.db #0x10	; 16
	.db #0x00	; 0
	.db #0x00	; 0
	.db #0x82	; 130
	.db #0x82	; 130
	.db #0x82	; 130
	.db #0x82	; 130
	.db #0x82	; 130
	.db #0x82	; 130
	.db #0x92	; 146
	.db #0x92	; 146
	.db #0xaa	; 170
	.db #0xaa	; 170
	.db #0xc6	; 198
	.db #0xc6	; 198
	.db #0x82	; 130
	.db #0x82	; 130
	.db #0x00	; 0
	.db #0x00	; 0
	.db #0x82	; 130
	.db #0x82	; 130
	.db #0x44	; 68	'D'
	.db #0x44	; 68	'D'
	.db #0x28	; 40
	.db #0x28	; 40
	.db #0x10	; 16
	.db #0x10	; 16
	.db #0x28	; 40
	.db #0x28	; 40
	.db #0x44	; 68	'D'
	.db #0x44	; 68	'D'
	.db #0x82	; 130
	.db #0x82	; 130
	.db #0x00	; 0
	.db #0x00	; 0
	.db #0x82	; 130
	.db #0x82	; 130
	.db #0x44	; 68	'D'
	.db #0x44	; 68	'D'
	.db #0x28	; 40
	.db #0x28	; 40
	.db #0x10	; 16
	.db #0x10	; 16
	.db #0x10	; 16
	.db #0x10	; 16
	.db #0x10	; 16
	.db #0x10	; 16
	.db #0x10	; 16
	.db #0x10	; 16
	.db #0x00	; 0
	.db #0x00	; 0
	.db #0xfe	; 254
	.db #0xfe	; 254
	.db #0x04	; 4
	.db #0x04	; 4
	.db #0x08	; 8
	.db #0x08	; 8
	.db #0x10	; 16
	.db #0x10	; 16
	.db #0x20	; 32
	.db #0x20	; 32
	.db #0x40	; 64
	.db #0x40	; 64
	.db #0xfe	; 254
	.db #0xfe	; 254
	.db #0x00	; 0
	.db #0x00	; 0
	.db #0x1c	; 28
	.db #0x1c	; 28
	.db #0x10	; 16
	.db #0x10	; 16
	.db #0x10	; 16
	.db #0x10	; 16
	.db #0x10	; 16
	.db #0x10	; 16
	.db #0x10	; 16
	.db #0x10	; 16
	.db #0x10	; 16
	.db #0x10	; 16
	.db #0x1c	; 28
	.db #0x1c	; 28
	.db #0x00	; 0
	.db #0x00	; 0
	.db #0x80	; 128
	.db #0x80	; 128
	.db #0x40	; 64
	.db #0x40	; 64
	.db #0x20	; 32
	.db #0x20	; 32
	.db #0x10	; 16
	.db #0x10	; 16
	.db #0x08	; 8
	.db #0x08	; 8
	.db #0x04	; 4
	.db #0x04	; 4
	.db #0x02	; 2
	.db #0x02	; 2
	.db #0x00	; 0
	.db #0x00	; 0
	.db #0x70	; 112	'p'
	.db #0x70	; 112	'p'
	.db #0x10	; 16
	.db #0x10	; 16
	.db #0x10	; 16
	.db #0x10	; 16
	.db #0x10	; 16
	.db #0x10	; 16
	.db #0x10	; 16
	.db #0x10	; 16
	.db #0x10	; 16
	.db #0x10	; 16
	.db #0x70	; 112	'p'
	.db #0x70	; 112	'p'
	.db #0x00	; 0
	.db #0x00	; 0
	.db #0x10	; 16
	.db #0x10	; 16
	.db #0x28	; 40
	.db #0x28	; 40
	.db #0x44	; 68	'D'
	.db #0x44	; 68	'D'
	.db #0x82	; 130
	.db #0x82	; 130
	.db #0x00	; 0
	.db #0x00	; 0
	.db #0x00	; 0
	.db #0x00	; 0
	.db #0x00	; 0
	.db #0x00	; 0
	.db #0x00	; 0
	.db #0x00	; 0
	.db #0x00	; 0
	.db #0x00	; 0
	.db #0x00	; 0
	.db #0x00	; 0
	.db #0x00	; 0
	.db #0x00	; 0
	.db #0x00	; 0
	.db #0x00	; 0
	.db #0x00	; 0
	.db #0x00	; 0
	.db #0x00	; 0
	.db #0x00	; 0
	.db #0xfe	; 254
	.db #0xfe	; 254
	.db #0x00	; 0
	.db #0x00	; 0
__xinit__tiles:
	.db #0x00	; 0
	.db #0x00	; 0
	.db #0x00	; 0
	.db #0x00	; 0
	.db #0x00	; 0
	.db #0x00	; 0
	.db #0x00	; 0
	.db #0x00	; 0
	.db #0x00	; 0
	.db #0x00	; 0
	.db #0x00	; 0
	.db #0x00	; 0
	.db #0x00	; 0
	.db #0x00	; 0
	.db #0x00	; 0
	.db #0x00	; 0
	.db #0x27	; 39
	.db #0xff	; 255
	.db #0x7f	; 127
	.db #0xff	; 255
	.db #0x9e	; 158
	.db #0xff	; 255
	.db #0x0f	; 15
	.db #0xff	; 255
	.db #0x5b	; 91
	.db #0xff	; 255
	.db #0x3f	; 63
	.db #0xff	; 255
	.db #0x17	; 23
	.db #0xff	; 255
	.db #0x5b	; 91
	.db #0xff	; 255
	.db #0x68	; 104	'h'
	.db #0x17	; 23
	.db #0x31	; 49	'1'
	.db #0x0f	; 15
	.db #0x20	; 32
	.db #0x1f	; 31
	.db #0x69	; 105	'i'
	.db #0x17	; 23
	.db #0x60	; 96
	.db #0x1f	; 31
	.db #0x24	; 36
	.db #0x1f	; 31
	.db #0x20	; 32
	.db #0x1f	; 31
	.db #0x68	; 104	'h'
	.db #0x17	; 23
	.db #0xda	; 218
	.db #0xff	; 255
	.db #0xe8	; 232
	.db #0xff	; 255
	.db #0xfc	; 252
	.db #0xff	; 255
	.db #0xda	; 218
	.db #0xff	; 255
	.db #0xf0	; 240
	.db #0xff	; 255
	.db #0x79	; 121	'y'
	.db #0xff	; 255
	.db #0xfe	; 254
	.db #0xff	; 255
	.db #0xe4	; 228
	.db #0xff	; 255
	.db #0x16	; 22
	.db #0xe8	; 232
	.db #0x8c	; 140
	.db #0xf0	; 240
	.db #0x04	; 4
	.db #0xf8	; 248
	.db #0x96	; 150
	.db #0xe8	; 232
	.db #0x06	; 6
	.db #0xf8	; 248
	.db #0x24	; 36
	.db #0xf8	; 248
	.db #0x04	; 4
	.db #0xf8	; 248
	.db #0x16	; 22
	.db #0xe8	; 232
	.db #0x0a	; 10
	.db #0xff	; 255
	.db #0x00	; 0
	.db #0xff	; 255
	.db #0x20	; 32
	.db #0xff	; 255
	.db #0x89	; 137
	.db #0x76	; 118	'v'
	.db #0x02	; 2
	.db #0xfd	; 253
	.db #0xff	; 255
	.db #0x00	; 0
	.db #0x99	; 153
	.db #0x00	; 0
	.db #0x00	; 0
	.db #0x00	; 0
	.db #0x00	; 0
	.db #0x00	; 0
	.db #0x99	; 153
	.db #0x00	; 0
	.db #0xff	; 255
	.db #0x00	; 0
	.db #0x02	; 2
	.db #0xfd	; 253
	.db #0x89	; 137
	.db #0x76	; 118	'v'
	.db #0x20	; 32
	.db #0xff	; 255
	.db #0x00	; 0
	.db #0xff	; 255
	.db #0x0a	; 10
	.db #0xff	; 255
	.db #0x04	; 4
	.db #0xff	; 255
	.db #0x92	; 146
	.db #0xff	; 255
	.db #0x23	; 35
	.db #0xff	; 255
	.db #0xf6	; 246
	.db #0xff	; 255
	.db #0xbe	; 190
	.db #0xff	; 255
	.db #0x6f	; 111	'o'
	.db #0xff	; 255
	.db #0xff	; 255
	.db #0xff	; 255
	.db #0xfb	; 251
	.db #0xff	; 255
	.db #0x04	; 4
	.db #0xff	; 255
	.db #0x92	; 146
	.db #0xff	; 255
	.db #0x23	; 35
	.db #0xff	; 255
	.db #0xf6	; 246
	.db #0xff	; 255
	.db #0xbe	; 190
	.db #0xff	; 255
	.db #0x6f	; 111	'o'
	.db #0xff	; 255
	.db #0xff	; 255
	.db #0xff	; 255
	.db #0xfb	; 251
	.db #0xff	; 255
	.db #0x03	; 3
	.db #0x00	; 0
	.db #0x03	; 3
	.db #0x00	; 0
	.db #0x39	; 57	'9'
	.db #0x00	; 0
	.db #0x21	; 33
	.db #0x1e	; 30
	.db #0x0b	; 11
	.db #0x1c	; 28
	.db #0x00	; 0
	.db #0x1f	; 31
	.db #0xc8	; 200
	.db #0x17	; 23
	.db #0xf8	; 248
	.db #0x07	; 7
	.db #0xc0	; 192
	.db #0x00	; 0
	.db #0xc0	; 192
	.db #0x00	; 0
	.db #0x8c	; 140
	.db #0x00	; 0
	.db #0x84	; 132
	.db #0x78	; 120	'x'
	.db #0xd4	; 212
	.db #0x38	; 56	'8'
	.db #0x00	; 0
	.db #0xf8	; 248
	.db #0x13	; 19
	.db #0xe8	; 232
	.db #0x1f	; 31
	.db #0xe0	; 224
	.db #0x1f	; 31
	.db #0xe0	; 224
	.db #0x13	; 19
	.db #0xe8	; 232
	.db #0x00	; 0
	.db #0xf8	; 248
	.db #0xd0	; 208
	.db #0x38	; 56	'8'
	.db #0x84	; 132
	.db #0x78	; 120	'x'
	.db #0x9c	; 156
	.db #0x00	; 0
	.db #0xc0	; 192
	.db #0x00	; 0
	.db #0xc0	; 192
	.db #0x00	; 0
	.db #0xff	; 255
	.db #0xff	; 255
	.db #0xff	; 255
	.db #0xff	; 255
	.db #0xff	; 255
	.db #0xff	; 255
	.db #0xff	; 255
	.db #0xff	; 255
	.db #0xff	; 255
	.db #0xff	; 255
	.db #0xff	; 255
	.db #0xff	; 255
	.db #0xff	; 255
	.db #0xff	; 255
	.db #0xff	; 255
	.db #0xff	; 255
	.db #0xf8	; 248
	.db #0x07	; 7
	.db #0xc8	; 200
	.db #0x17	; 23
	.db #0x00	; 0
	.db #0x1f	; 31
	.db #0x2b	; 43
	.db #0x1c	; 28
	.db #0x21	; 33
	.db #0x1e	; 30
	.db #0x31	; 49	'1'
	.db #0x00	; 0
	.db #0x03	; 3
	.db #0x00	; 0
	.db #0x03	; 3
	.db #0x00	; 0
	.db #0xff	; 255
	.db #0xff	; 255
	.db #0x80	; 128
	.db #0x80	; 128
	.db #0x80	; 128
	.db #0x80	; 128
	.db #0x80	; 128
	.db #0x80	; 128
	.db #0x8f	; 143
	.db #0x8f	; 143
	.db #0x8f	; 143
	.db #0x8f	; 143
	.db #0x8f	; 143
	.db #0x8f	; 143
	.db #0x8f	; 143
	.db #0x8f	; 143
	.db #0x8f	; 143
	.db #0x8f	; 143
	.db #0x8f	; 143
	.db #0x8f	; 143
	.db #0x8f	; 143
	.db #0x8f	; 143
	.db #0x8f	; 143
	.db #0x8f	; 143
	.db #0x80	; 128
	.db #0x80	; 128
	.db #0x80	; 128
	.db #0x80	; 128
	.db #0x80	; 128
	.db #0x80	; 128
	.db #0xff	; 255
	.db #0xff	; 255
	.db #0x8f	; 143
	.db #0x8f	; 143
	.db #0x8f	; 143
	.db #0x8f	; 143
	.db #0x8f	; 143
	.db #0x8f	; 143
	.db #0x8f	; 143
	.db #0x8f	; 143
	.db #0x8f	; 143
	.db #0x8f	; 143
	.db #0x8f	; 143
	.db #0x8f	; 143
	.db #0x8f	; 143
	.db #0x8f	; 143
	.db #0x8f	; 143
	.db #0x8f	; 143
	.db #0xf1	; 241
	.db #0xf1	; 241
	.db #0xf1	; 241
	.db #0xf1	; 241
	.db #0xf1	; 241
	.db #0xf1	; 241
	.db #0xf1	; 241
	.db #0xf1	; 241
	.db #0xf1	; 241
	.db #0xf1	; 241
	.db #0xf1	; 241
	.db #0xf1	; 241
	.db #0xf1	; 241
	.db #0xf1	; 241
	.db #0xf1	; 241
	.db #0xf1	; 241
	.db #0xff	; 255
	.db #0xff	; 255
	.db #0xff	; 255
	.db #0xff	; 255
	.db #0xff	; 255
	.db #0xff	; 255
	.db #0xff	; 255
	.db #0xff	; 255
	.db #0x00	; 0
	.db #0x00	; 0
	.db #0x00	; 0
	.db #0x00	; 0
	.db #0x00	; 0
	.db #0x00	; 0
	.db #0xff	; 255
	.db #0xff	; 255
	.db #0xff	; 255
	.db #0xff	; 255
	.db #0x00	; 0
	.db #0x00	; 0
	.db #0x00	; 0
	.db #0x00	; 0
	.db #0x00	; 0
	.db #0x00	; 0
	.db #0xff	; 255
	.db #0xff	; 255
	.db #0xff	; 255
	.db #0xff	; 255
	.db #0xff	; 255
	.db #0xff	; 255
	.db #0xff	; 255
	.db #0xff	; 255
	.db #0xff	; 255
	.db #0xff	; 255
	.db #0x01	; 1
	.db #0x01	; 1
	.db #0x01	; 1
	.db #0x01	; 1
	.db #0x01	; 1
	.db #0x01	; 1
	.db #0xf1	; 241
	.db #0xf1	; 241
	.db #0xf1	; 241
	.db #0xf1	; 241
	.db #0xf1	; 241
	.db #0xf1	; 241
	.db #0xf1	; 241
	.db #0xf1	; 241
	.db #0xf1	; 241
	.db #0xf1	; 241
	.db #0xf1	; 241
	.db #0xf1	; 241
	.db #0xf1	; 241
	.db #0xf1	; 241
	.db #0xf1	; 241
	.db #0xf1	; 241
	.db #0x01	; 1
	.db #0x01	; 1
	.db #0x01	; 1
	.db #0x01	; 1
	.db #0x01	; 1
	.db #0x01	; 1
	.db #0xff	; 255
	.db #0xff	; 255
	.db #0x83	; 131
	.db #0x7c	; 124
	.db #0x39	; 57	'9'
	.db #0xc6	; 198
	.db #0x4d	; 77	'M'
	.db #0xb2	; 178
	.db #0x5d	; 93
	.db #0xa2	; 162
	.db #0x79	; 121	'y'
	.db #0x86	; 134
	.db #0x33	; 51	'3'
	.db #0xcc	; 204
	.db #0x84	; 132
	.db #0x7b	; 123
	.db #0xfa	; 250
	.db #0x05	; 5
	.db #0x31	; 49	'1'
	.db #0xce	; 206
	.db #0x62	; 98	'b'
	.db #0x9d	; 157
	.db #0xc4	; 196
	.db #0x3b	; 59
	.db #0x80	; 128
	.db #0x7f	; 127
	.db #0x13	; 19
	.db #0xec	; 236
	.db #0x46	; 70	'F'
	.db #0xb9	; 185
	.db #0x64	; 100	'd'
	.db #0x9b	; 155
	.db #0x18	; 24
	.db #0xe7	; 231
	.db #0x38	; 56	'8'
	.db #0x38	; 56	'8'
	.db #0x44	; 68	'D'
	.db #0x44	; 68	'D'
	.db #0x82	; 130
	.db #0x82	; 130
	.db #0x82	; 130
	.db #0x82	; 130
	.db #0xfe	; 254
	.db #0xfe	; 254
	.db #0x82	; 130
	.db #0x82	; 130
	.db #0x82	; 130
	.db #0x82	; 130
	.db #0x00	; 0
	.db #0x00	; 0
	.db #0xfc	; 252
	.db #0xfc	; 252
	.db #0x82	; 130
	.db #0x82	; 130
	.db #0x82	; 130
	.db #0x82	; 130
	.db #0xfc	; 252
	.db #0xfc	; 252
	.db #0x82	; 130
	.db #0x82	; 130
	.db #0x82	; 130
	.db #0x82	; 130
	.db #0xfc	; 252
	.db #0xfc	; 252
	.db #0x00	; 0
	.db #0x00	; 0
	.db #0x7c	; 124
	.db #0x7c	; 124
	.db #0x82	; 130
	.db #0x82	; 130
	.db #0x80	; 128
	.db #0x80	; 128
	.db #0x80	; 128
	.db #0x80	; 128
	.db #0x80	; 128
	.db #0x80	; 128
	.db #0x82	; 130
	.db #0x82	; 130
	.db #0x7c	; 124
	.db #0x7c	; 124
	.db #0x00	; 0
	.db #0x00	; 0
	.db #0xf8	; 248
	.db #0xf8	; 248
	.db #0x84	; 132
	.db #0x84	; 132
	.db #0x82	; 130
	.db #0x82	; 130
	.db #0x82	; 130
	.db #0x82	; 130
	.db #0x82	; 130
	.db #0x82	; 130
	.db #0x84	; 132
	.db #0x84	; 132
	.db #0xf8	; 248
	.db #0xf8	; 248
	.db #0x00	; 0
	.db #0x00	; 0
	.db #0xfe	; 254
	.db #0xfe	; 254
	.db #0x80	; 128
	.db #0x80	; 128
	.db #0x80	; 128
	.db #0x80	; 128
	.db #0xfc	; 252
	.db #0xfc	; 252
	.db #0x80	; 128
	.db #0x80	; 128
	.db #0x80	; 128
	.db #0x80	; 128
	.db #0xfe	; 254
	.db #0xfe	; 254
	.db #0x00	; 0
	.db #0x00	; 0
	.db #0xfe	; 254
	.db #0xfe	; 254
	.db #0x80	; 128
	.db #0x80	; 128
	.db #0x80	; 128
	.db #0x80	; 128
	.db #0xfc	; 252
	.db #0xfc	; 252
	.db #0x80	; 128
	.db #0x80	; 128
	.db #0x80	; 128
	.db #0x80	; 128
	.db #0x80	; 128
	.db #0x80	; 128
	.db #0x00	; 0
	.db #0x00	; 0
	.db #0x7c	; 124
	.db #0x7c	; 124
	.db #0x82	; 130
	.db #0x82	; 130
	.db #0x80	; 128
	.db #0x80	; 128
	.db #0x80	; 128
	.db #0x80	; 128
	.db #0x8e	; 142
	.db #0x8e	; 142
	.db #0x82	; 130
	.db #0x82	; 130
	.db #0x7e	; 126
	.db #0x7e	; 126
	.db #0x00	; 0
	.db #0x00	; 0
	.db #0x82	; 130
	.db #0x82	; 130
	.db #0x82	; 130
	.db #0x82	; 130
	.db #0x82	; 130
	.db #0x82	; 130
	.db #0xfe	; 254
	.db #0xfe	; 254
	.db #0x82	; 130
	.db #0x82	; 130
	.db #0x82	; 130
	.db #0x82	; 130
	.db #0x82	; 130
	.db #0x82	; 130
	.db #0x00	; 0
	.db #0x00	; 0
	.db #0x7c	; 124
	.db #0x7c	; 124
	.db #0x10	; 16
	.db #0x10	; 16
	.db #0x10	; 16
	.db #0x10	; 16
	.db #0x10	; 16
	.db #0x10	; 16
	.db #0x10	; 16
	.db #0x10	; 16
	.db #0x10	; 16
	.db #0x10	; 16
	.db #0x7c	; 124
	.db #0x7c	; 124
	.db #0x00	; 0
	.db #0x00	; 0
	.db #0x1e	; 30
	.db #0x1e	; 30
	.db #0x04	; 4
	.db #0x04	; 4
	.db #0x04	; 4
	.db #0x04	; 4
	.db #0x04	; 4
	.db #0x04	; 4
	.db #0x04	; 4
	.db #0x04	; 4
	.db #0x84	; 132
	.db #0x84	; 132
	.db #0x78	; 120	'x'
	.db #0x78	; 120	'x'
	.db #0x00	; 0
	.db #0x00	; 0
	.db #0x84	; 132
	.db #0x84	; 132
	.db #0x88	; 136
	.db #0x88	; 136
	.db #0x90	; 144
	.db #0x90	; 144
	.db #0xf0	; 240
	.db #0xf0	; 240
	.db #0x88	; 136
	.db #0x88	; 136
	.db #0x84	; 132
	.db #0x84	; 132
	.db #0x82	; 130
	.db #0x82	; 130
	.db #0x00	; 0
	.db #0x00	; 0
	.db #0x40	; 64
	.db #0x40	; 64
	.db #0x40	; 64
	.db #0x40	; 64
	.db #0x40	; 64
	.db #0x40	; 64
	.db #0x40	; 64
	.db #0x40	; 64
	.db #0x40	; 64
	.db #0x40	; 64
	.db #0x40	; 64
	.db #0x40	; 64
	.db #0x7e	; 126
	.db #0x7e	; 126
	.db #0x00	; 0
	.db #0x00	; 0
	.db #0x82	; 130
	.db #0x82	; 130
	.db #0xc6	; 198
	.db #0xc6	; 198
	.db #0xaa	; 170
	.db #0xaa	; 170
	.db #0x92	; 146
	.db #0x92	; 146
	.db #0x82	; 130
	.db #0x82	; 130
	.db #0x82	; 130
	.db #0x82	; 130
	.db #0x82	; 130
	.db #0x82	; 130
	.db #0x00	; 0
	.db #0x00	; 0
	.db #0x82	; 130
	.db #0x82	; 130
	.db #0xc2	; 194
	.db #0xc2	; 194
	.db #0xa2	; 162
	.db #0xa2	; 162
	.db #0x92	; 146
	.db #0x92	; 146
	.db #0x8a	; 138
	.db #0x8a	; 138
	.db #0x86	; 134
	.db #0x86	; 134
	.db #0x82	; 130
	.db #0x82	; 130
	.db #0x00	; 0
	.db #0x00	; 0
	.db #0x7c	; 124
	.db #0x7c	; 124
	.db #0x82	; 130
	.db #0x82	; 130
	.db #0x82	; 130
	.db #0x82	; 130
	.db #0x82	; 130
	.db #0x82	; 130
	.db #0x82	; 130
	.db #0x82	; 130
	.db #0x82	; 130
	.db #0x82	; 130
	.db #0x7c	; 124
	.db #0x7c	; 124
	.db #0x00	; 0
	.db #0x00	; 0
	.db #0xfc	; 252
	.db #0xfc	; 252
	.db #0x82	; 130
	.db #0x82	; 130
	.db #0x82	; 130
	.db #0x82	; 130
	.db #0x82	; 130
	.db #0x82	; 130
	.db #0xfc	; 252
	.db #0xfc	; 252
	.db #0x80	; 128
	.db #0x80	; 128
	.db #0x80	; 128
	.db #0x80	; 128
	.db #0x00	; 0
	.db #0x00	; 0
	.db #0x7c	; 124
	.db #0x7c	; 124
	.db #0x82	; 130
	.db #0x82	; 130
	.db #0x82	; 130
	.db #0x82	; 130
	.db #0x92	; 146
	.db #0x92	; 146
	.db #0x8a	; 138
	.db #0x8a	; 138
	.db #0x84	; 132
	.db #0x84	; 132
	.db #0x7a	; 122	'z'
	.db #0x7a	; 122	'z'
	.db #0x00	; 0
	.db #0x00	; 0
	.db #0xfc	; 252
	.db #0xfc	; 252
	.db #0x82	; 130
	.db #0x82	; 130
	.db #0x82	; 130
	.db #0x82	; 130
	.db #0x84	; 132
	.db #0x84	; 132
	.db #0xf8	; 248
	.db #0xf8	; 248
	.db #0x84	; 132
	.db #0x84	; 132
	.db #0x82	; 130
	.db #0x82	; 130
	.db #0x00	; 0
	.db #0x00	; 0
	.db #0x7c	; 124
	.db #0x7c	; 124
	.db #0x80	; 128
	.db #0x80	; 128
	.db #0x80	; 128
	.db #0x80	; 128
	.db #0x7c	; 124
	.db #0x7c	; 124
	.db #0x02	; 2
	.db #0x02	; 2
	.db #0x02	; 2
	.db #0x02	; 2
	.db #0xfc	; 252
	.db #0xfc	; 252
	.db #0x00	; 0
	.db #0x00	; 0
	.db #0xfe	; 254
	.db #0xfe	; 254
	.db #0x10	; 16
	.db #0x10	; 16
	.db #0x10	; 16
	.db #0x10	; 16
	.db #0x10	; 16
	.db #0x10	; 16
	.db #0x10	; 16
	.db #0x10	; 16
	.db #0x10	; 16
	.db #0x10	; 16
	.db #0x10	; 16
	.db #0x10	; 16
	.db #0x00	; 0
	.db #0x00	; 0
	.db #0x82	; 130
	.db #0x82	; 130
	.db #0x82	; 130
	.db #0x82	; 130
	.db #0x82	; 130
	.db #0x82	; 130
	.db #0x82	; 130
	.db #0x82	; 130
	.db #0x82	; 130
	.db #0x82	; 130
	.db #0x82	; 130
	.db #0x82	; 130
	.db #0x7c	; 124
	.db #0x7c	; 124
	.db #0x00	; 0
	.db #0x00	; 0
	.db #0x82	; 130
	.db #0x82	; 130
	.db #0x82	; 130
	.db #0x82	; 130
	.db #0x82	; 130
	.db #0x82	; 130
	.db #0x82	; 130
	.db #0x82	; 130
	.db #0x44	; 68	'D'
	.db #0x44	; 68	'D'
	.db #0x28	; 40
	.db #0x28	; 40
	.db #0x10	; 16
	.db #0x10	; 16
	.db #0x00	; 0
	.db #0x00	; 0
	.db #0x82	; 130
	.db #0x82	; 130
	.db #0x82	; 130
	.db #0x82	; 130
	.db #0x82	; 130
	.db #0x82	; 130
	.db #0x92	; 146
	.db #0x92	; 146
	.db #0xaa	; 170
	.db #0xaa	; 170
	.db #0xc6	; 198
	.db #0xc6	; 198
	.db #0x82	; 130
	.db #0x82	; 130
	.db #0x00	; 0
	.db #0x00	; 0
	.db #0x82	; 130
	.db #0x82	; 130
	.db #0x44	; 68	'D'
	.db #0x44	; 68	'D'
	.db #0x28	; 40
	.db #0x28	; 40
	.db #0x10	; 16
	.db #0x10	; 16
	.db #0x28	; 40
	.db #0x28	; 40
	.db #0x44	; 68	'D'
	.db #0x44	; 68	'D'
	.db #0x82	; 130
	.db #0x82	; 130
	.db #0x00	; 0
	.db #0x00	; 0
	.db #0x82	; 130
	.db #0x82	; 130
	.db #0x44	; 68	'D'
	.db #0x44	; 68	'D'
	.db #0x28	; 40
	.db #0x28	; 40
	.db #0x10	; 16
	.db #0x10	; 16
	.db #0x10	; 16
	.db #0x10	; 16
	.db #0x10	; 16
	.db #0x10	; 16
	.db #0x10	; 16
	.db #0x10	; 16
	.db #0x00	; 0
	.db #0x00	; 0
	.db #0xfe	; 254
	.db #0xfe	; 254
	.db #0x04	; 4
	.db #0x04	; 4
	.db #0x08	; 8
	.db #0x08	; 8
	.db #0x10	; 16
	.db #0x10	; 16
	.db #0x20	; 32
	.db #0x20	; 32
	.db #0x40	; 64
	.db #0x40	; 64
	.db #0xfe	; 254
	.db #0xfe	; 254
	.db #0x00	; 0
	.db #0x00	; 0
	.db #0x7c	; 124
	.db #0x7c	; 124
	.db #0x86	; 134
	.db #0x86	; 134
	.db #0x8a	; 138
	.db #0x8a	; 138
	.db #0x92	; 146
	.db #0x92	; 146
	.db #0xa2	; 162
	.db #0xa2	; 162
	.db #0xc2	; 194
	.db #0xc2	; 194
	.db #0x7c	; 124
	.db #0x7c	; 124
	.db #0x00	; 0
	.db #0x00	; 0
	.db #0x10	; 16
	.db #0x10	; 16
	.db #0x30	; 48	'0'
	.db #0x30	; 48	'0'
	.db #0x10	; 16
	.db #0x10	; 16
	.db #0x10	; 16
	.db #0x10	; 16
	.db #0x10	; 16
	.db #0x10	; 16
	.db #0x10	; 16
	.db #0x10	; 16
	.db #0x7c	; 124
	.db #0x7c	; 124
	.db #0x00	; 0
	.db #0x00	; 0
	.db #0x7c	; 124
	.db #0x7c	; 124
	.db #0x82	; 130
	.db #0x82	; 130
	.db #0x02	; 2
	.db #0x02	; 2
	.db #0x1c	; 28
	.db #0x1c	; 28
	.db #0x60	; 96
	.db #0x60	; 96
	.db #0x80	; 128
	.db #0x80	; 128
	.db #0xfe	; 254
	.db #0xfe	; 254
	.db #0x00	; 0
	.db #0x00	; 0
	.db #0xfe	; 254
	.db #0xfe	; 254
	.db #0x04	; 4
	.db #0x04	; 4
	.db #0x18	; 24
	.db #0x18	; 24
	.db #0x04	; 4
	.db #0x04	; 4
	.db #0x02	; 2
	.db #0x02	; 2
	.db #0x82	; 130
	.db #0x82	; 130
	.db #0x7c	; 124
	.db #0x7c	; 124
	.db #0x00	; 0
	.db #0x00	; 0
	.db #0x0c	; 12
	.db #0x0c	; 12
	.db #0x14	; 20
	.db #0x14	; 20
	.db #0x24	; 36
	.db #0x24	; 36
	.db #0x44	; 68	'D'
	.db #0x44	; 68	'D'
	.db #0x84	; 132
	.db #0x84	; 132
	.db #0xfe	; 254
	.db #0xfe	; 254
	.db #0x04	; 4
	.db #0x04	; 4
	.db #0x00	; 0
	.db #0x00	; 0
	.db #0xfc	; 252
	.db #0xfc	; 252
	.db #0x80	; 128
	.db #0x80	; 128
	.db #0xfc	; 252
	.db #0xfc	; 252
	.db #0x02	; 2
	.db #0x02	; 2
	.db #0x02	; 2
	.db #0x02	; 2
	.db #0x82	; 130
	.db #0x82	; 130
	.db #0x7c	; 124
	.db #0x7c	; 124
	.db #0x00	; 0
	.db #0x00	; 0
	.db #0x7c	; 124
	.db #0x7c	; 124
	.db #0x80	; 128
	.db #0x80	; 128
	.db #0x80	; 128
	.db #0x80	; 128
	.db #0xfc	; 252
	.db #0xfc	; 252
	.db #0x82	; 130
	.db #0x82	; 130
	.db #0x82	; 130
	.db #0x82	; 130
	.db #0x7c	; 124
	.db #0x7c	; 124
	.db #0x00	; 0
	.db #0x00	; 0
	.db #0xfe	; 254
	.db #0xfe	; 254
	.db #0x82	; 130
	.db #0x82	; 130
	.db #0x04	; 4
	.db #0x04	; 4
	.db #0x08	; 8
	.db #0x08	; 8
	.db #0x10	; 16
	.db #0x10	; 16
	.db #0x10	; 16
	.db #0x10	; 16
	.db #0x10	; 16
	.db #0x10	; 16
	.db #0x00	; 0
	.db #0x00	; 0
	.db #0x7c	; 124
	.db #0x7c	; 124
	.db #0x82	; 130
	.db #0x82	; 130
	.db #0x82	; 130
	.db #0x82	; 130
	.db #0x7c	; 124
	.db #0x7c	; 124
	.db #0x82	; 130
	.db #0x82	; 130
	.db #0x82	; 130
	.db #0x82	; 130
	.db #0x7c	; 124
	.db #0x7c	; 124
	.db #0x00	; 0
	.db #0x00	; 0
	.db #0x7c	; 124
	.db #0x7c	; 124
	.db #0x82	; 130
	.db #0x82	; 130
	.db #0x82	; 130
	.db #0x82	; 130
	.db #0x7e	; 126
	.db #0x7e	; 126
	.db #0x02	; 2
	.db #0x02	; 2
	.db #0x02	; 2
	.db #0x02	; 2
	.db #0x7c	; 124
	.db #0x7c	; 124
	.db #0x00	; 0
	.db #0x00	; 0
__xinit__cursorSPR:
	.db #0x00	; 0
	.db #0x7e	; 126
	.db #0x01	; 1
	.db #0x81	; 129
	.db #0x01	; 1
	.db #0x81	; 129
	.db #0x01	; 1
	.db #0x81	; 129
	.db #0x01	; 1
	.db #0x81	; 129
	.db #0x01	; 1
	.db #0x81	; 129
	.db #0x01	; 1
	.db #0x81	; 129
	.db #0x7e	; 126
	.db #0x7e	; 126
__xinit__dungeon:
	.db #0x09	; 9
	.db #0x06	; 6
	.db #0x06	; 6
	.db #0x06	; 6
	.db #0x06	; 6
	.db #0x06	; 6
	.db #0x06	; 6
	.db #0x06	; 6
	.db #0x06	; 6
	.db #0x06	; 6
	.db #0x06	; 6
	.db #0x06	; 6
	.db #0x06	; 6
	.db #0x06	; 6
	.db #0x06	; 6
	.db #0x06	; 6
	.db #0x06	; 6
	.db #0x06	; 6
	.db #0x06	; 6
	.db #0x0a	; 10
	.db #0x02	; 2
	.db #0x01	; 1
	.db #0x08	; 8
	.db #0x08	; 8
	.db #0x08	; 8
	.db #0x08	; 8
	.db #0x08	; 8
	.db #0x08	; 8
	.db #0x08	; 8
	.db #0x08	; 8
	.db #0x08	; 8
	.db #0x08	; 8
	.db #0x08	; 8
	.db #0x08	; 8
	.db #0x08	; 8
	.db #0x08	; 8
	.db #0x08	; 8
	.db #0x08	; 8
	.db #0x03	; 3
	.db #0x04	; 4
	.db #0x02	; 2
	.db #0x01	; 1
	.db #0x00	; 0
	.db #0x00	; 0
	.db #0x00	; 0
	.db #0x00	; 0
	.db #0x00	; 0
	.db #0x00	; 0
	.db #0x00	; 0
	.db #0x00	; 0
	.db #0x00	; 0
	.db #0x00	; 0
	.db #0x00	; 0
	.db #0x00	; 0
	.db #0x00	; 0
	.db #0x00	; 0
	.db #0x00	; 0
	.db #0x00	; 0
	.db #0x03	; 3
	.db #0x04	; 4
	.db #0x02	; 2
	.db #0x01	; 1
	.db #0x00	; 0
	.db #0x00	; 0
	.db #0x00	; 0
	.db #0x00	; 0
	.db #0x00	; 0
	.db #0x00	; 0
	.db #0x00	; 0
	.db #0x00	; 0
	.db #0x00	; 0
	.db #0x00	; 0
	.db #0x00	; 0
	.db #0x00	; 0
	.db #0x00	; 0
	.db #0x00	; 0
	.db #0x00	; 0
	.db #0x00	; 0
	.db #0x03	; 3
	.db #0x04	; 4
	.db #0x02	; 2
	.db #0x01	; 1
	.db #0x00	; 0
	.db #0x00	; 0
	.db #0x00	; 0
	.db #0x00	; 0
	.db #0x00	; 0
	.db #0x00	; 0
	.db #0x00	; 0
	.db #0x00	; 0
	.db #0x00	; 0
	.db #0x00	; 0
	.db #0x00	; 0
	.db #0x00	; 0
	.db #0x00	; 0
	.db #0x00	; 0
	.db #0x00	; 0
	.db #0x00	; 0
	.db #0x03	; 3
	.db #0x04	; 4
	.db #0x02	; 2
	.db #0x01	; 1
	.db #0x00	; 0
	.db #0x00	; 0
	.db #0x00	; 0
	.db #0x00	; 0
	.db #0x00	; 0
	.db #0x00	; 0
	.db #0x00	; 0
	.db #0x00	; 0
	.db #0x00	; 0
	.db #0x00	; 0
	.db #0x00	; 0
	.db #0x00	; 0
	.db #0x00	; 0
	.db #0x00	; 0
	.db #0x00	; 0
	.db #0x00	; 0
	.db #0x03	; 3
	.db #0x04	; 4
	.db #0x02	; 2
	.db #0x01	; 1
	.db #0x00	; 0
	.db #0x00	; 0
	.db #0x00	; 0
	.db #0x00	; 0
	.db #0x00	; 0
	.db #0x00	; 0
	.db #0x00	; 0
	.db #0x00	; 0
	.db #0x00	; 0
	.db #0x00	; 0
	.db #0x00	; 0
	.db #0x00	; 0
	.db #0x00	; 0
	.db #0x00	; 0
	.db #0x00	; 0
	.db #0x00	; 0
	.db #0x03	; 3
	.db #0x04	; 4
	.db #0x02	; 2
	.db #0x01	; 1
	.db #0x00	; 0
	.db #0x00	; 0
	.db #0x00	; 0
	.db #0x00	; 0
	.db #0x00	; 0
	.db #0x00	; 0
	.db #0x00	; 0
	.db #0x00	; 0
	.db #0x00	; 0
	.db #0x00	; 0
	.db #0x00	; 0
	.db #0x00	; 0
	.db #0x00	; 0
	.db #0x00	; 0
	.db #0x00	; 0
	.db #0x00	; 0
	.db #0x03	; 3
	.db #0x04	; 4
	.db #0x02	; 2
	.db #0x01	; 1
	.db #0x00	; 0
	.db #0x00	; 0
	.db #0x00	; 0
	.db #0x00	; 0
	.db #0x00	; 0
	.db #0x00	; 0
	.db #0x00	; 0
	.db #0x00	; 0
	.db #0x00	; 0
	.db #0x00	; 0
	.db #0x00	; 0
	.db #0x00	; 0
	.db #0x00	; 0
	.db #0x00	; 0
	.db #0x00	; 0
	.db #0x00	; 0
	.db #0x03	; 3
	.db #0x04	; 4
	.db #0x02	; 2
	.db #0x01	; 1
	.db #0x00	; 0
	.db #0x00	; 0
	.db #0x00	; 0
	.db #0x00	; 0
	.db #0x00	; 0
	.db #0x00	; 0
	.db #0x00	; 0
	.db #0x00	; 0
	.db #0x00	; 0
	.db #0x00	; 0
	.db #0x00	; 0
	.db #0x00	; 0
	.db #0x00	; 0
	.db #0x00	; 0
	.db #0x00	; 0
	.db #0x00	; 0
	.db #0x03	; 3
	.db #0x04	; 4
	.db #0x02	; 2
	.db #0x01	; 1
	.db #0x00	; 0
	.db #0x00	; 0
	.db #0x00	; 0
	.db #0x00	; 0
	.db #0x00	; 0
	.db #0x00	; 0
	.db #0x00	; 0
	.db #0x00	; 0
	.db #0x00	; 0
	.db #0x00	; 0
	.db #0x00	; 0
	.db #0x00	; 0
	.db #0x00	; 0
	.db #0x00	; 0
	.db #0x00	; 0
	.db #0x00	; 0
	.db #0x03	; 3
	.db #0x04	; 4
	.db #0x02	; 2
	.db #0x01	; 1
	.db #0x00	; 0
	.db #0x00	; 0
	.db #0x00	; 0
	.db #0x00	; 0
	.db #0x00	; 0
	.db #0x00	; 0
	.db #0x00	; 0
	.db #0x00	; 0
	.db #0x00	; 0
	.db #0x00	; 0
	.db #0x00	; 0
	.db #0x00	; 0
	.db #0x00	; 0
	.db #0x00	; 0
	.db #0x00	; 0
	.db #0x00	; 0
	.db #0x03	; 3
	.db #0x04	; 4
	.db #0x02	; 2
	.db #0x01	; 1
	.db #0x00	; 0
	.db #0x00	; 0
	.db #0x00	; 0
	.db #0x00	; 0
	.db #0x00	; 0
	.db #0x00	; 0
	.db #0x00	; 0
	.db #0x00	; 0
	.db #0x00	; 0
	.db #0x00	; 0
	.db #0x00	; 0
	.db #0x00	; 0
	.db #0x00	; 0
	.db #0x00	; 0
	.db #0x00	; 0
	.db #0x00	; 0
	.db #0x03	; 3
	.db #0x04	; 4
	.db #0x02	; 2
	.db #0x01	; 1
	.db #0x00	; 0
	.db #0x00	; 0
	.db #0x00	; 0
	.db #0x00	; 0
	.db #0x00	; 0
	.db #0x00	; 0
	.db #0x00	; 0
	.db #0x00	; 0
	.db #0x00	; 0
	.db #0x00	; 0
	.db #0x00	; 0
	.db #0x00	; 0
	.db #0x00	; 0
	.db #0x00	; 0
	.db #0x00	; 0
	.db #0x00	; 0
	.db #0x03	; 3
	.db #0x04	; 4
	.db #0x02	; 2
	.db #0x01	; 1
	.db #0x00	; 0
	.db #0x00	; 0
	.db #0x00	; 0
	.db #0x00	; 0
	.db #0x00	; 0
	.db #0x00	; 0
	.db #0x00	; 0
	.db #0x00	; 0
	.db #0x00	; 0
	.db #0x00	; 0
	.db #0x00	; 0
	.db #0x00	; 0
	.db #0x00	; 0
	.db #0x00	; 0
	.db #0x00	; 0
	.db #0x00	; 0
	.db #0x03	; 3
	.db #0x04	; 4
	.db #0x02	; 2
	.db #0x01	; 1
	.db #0x00	; 0
	.db #0x00	; 0
	.db #0x00	; 0
	.db #0x00	; 0
	.db #0x00	; 0
	.db #0x00	; 0
	.db #0x00	; 0
	.db #0x00	; 0
	.db #0x00	; 0
	.db #0x00	; 0
	.db #0x00	; 0
	.db #0x00	; 0
	.db #0x00	; 0
	.db #0x00	; 0
	.db #0x00	; 0
	.db #0x00	; 0
	.db #0x03	; 3
	.db #0x04	; 4
	.db #0x02	; 2
	.db #0x01	; 1
	.db #0x07	; 7
	.db #0x07	; 7
	.db #0x07	; 7
	.db #0x07	; 7
	.db #0x07	; 7
	.db #0x07	; 7
	.db #0x07	; 7
	.db #0x07	; 7
	.db #0x07	; 7
	.db #0x07	; 7
	.db #0x07	; 7
	.db #0x07	; 7
	.db #0x07	; 7
	.db #0x07	; 7
	.db #0x07	; 7
	.db #0x07	; 7
	.db #0x03	; 3
	.db #0x04	; 4
	.db #0x0d	; 13
	.db #0x05	; 5
	.db #0x05	; 5
	.db #0x05	; 5
	.db #0x05	; 5
	.db #0x05	; 5
	.db #0x05	; 5
	.db #0x05	; 5
	.db #0x05	; 5
	.db #0x05	; 5
	.db #0x05	; 5
	.db #0x05	; 5
	.db #0x05	; 5
	.db #0x05	; 5
	.db #0x05	; 5
	.db #0x05	; 5
	.db #0x05	; 5
	.db #0x05	; 5
	.db #0x05	; 5
	.db #0x0b	; 11
__xinit__keyboard:
	.db #0x31	; 49	'1'
	.db #0x31	; 49	'1'
	.db #0x31	; 49	'1'
	.db #0x31	; 49	'1'
	.db #0x31	; 49	'1'
	.db #0x31	; 49	'1'
	.db #0x31	; 49	'1'
	.db #0x31	; 49	'1'
	.db #0x31	; 49	'1'
	.db #0x31	; 49	'1'
	.db #0x31	; 49	'1'
	.db #0x31	; 49	'1'
	.db #0x31	; 49	'1'
	.db #0x31	; 49	'1'
	.db #0x31	; 49	'1'
	.db #0x31	; 49	'1'
	.db #0x31	; 49	'1'
	.db #0x31	; 49	'1'
	.db #0x31	; 49	'1'
	.db #0x31	; 49	'1'
	.db #0x31	; 49	'1'
	.db #0x31	; 49	'1'
	.db #0x31	; 49	'1'
	.db #0x31	; 49	'1'
	.db #0x31	; 49	'1'
	.db #0x31	; 49	'1'
	.db #0x31	; 49	'1'
	.db #0x31	; 49	'1'
	.db #0x31	; 49	'1'
	.db #0x31	; 49	'1'
	.db #0x31	; 49	'1'
	.db #0x31	; 49	'1'
	.db #0x31	; 49	'1'
	.db #0x31	; 49	'1'
	.db #0x31	; 49	'1'
	.db #0x31	; 49	'1'
	.db #0x31	; 49	'1'
	.db #0x31	; 49	'1'
	.db #0x31	; 49	'1'
	.db #0x31	; 49	'1'
	.db #0x31	; 49	'1'
	.db #0x31	; 49	'1'
	.db #0x31	; 49	'1'
	.db #0x31	; 49	'1'
	.db #0x31	; 49	'1'
	.db #0x31	; 49	'1'
	.db #0x31	; 49	'1'
	.db #0x31	; 49	'1'
	.db #0x31	; 49	'1'
	.db #0x31	; 49	'1'
	.db #0x31	; 49	'1'
	.db #0x31	; 49	'1'
	.db #0x31	; 49	'1'
	.db #0x31	; 49	'1'
	.db #0x31	; 49	'1'
	.db #0x31	; 49	'1'
	.db #0x31	; 49	'1'
	.db #0x31	; 49	'1'
	.db #0x31	; 49	'1'
	.db #0x31	; 49	'1'
	.db #0x31	; 49	'1'
	.db #0x31	; 49	'1'
	.db #0x31	; 49	'1'
	.db #0x31	; 49	'1'
	.db #0x31	; 49	'1'
	.db #0x31	; 49	'1'
	.db #0x31	; 49	'1'
	.db #0x31	; 49	'1'
	.db #0x31	; 49	'1'
	.db #0x31	; 49	'1'
	.db #0x31	; 49	'1'
	.db #0x31	; 49	'1'
	.db #0x31	; 49	'1'
	.db #0x31	; 49	'1'
	.db #0x31	; 49	'1'
	.db #0x31	; 49	'1'
	.db #0x31	; 49	'1'
	.db #0x31	; 49	'1'
	.db #0x31	; 49	'1'
	.db #0x31	; 49	'1'
	.db #0x31	; 49	'1'
	.db #0x31	; 49	'1'
	.db #0x31	; 49	'1'
	.db #0x31	; 49	'1'
	.db #0x31	; 49	'1'
	.db #0x31	; 49	'1'
	.db #0x31	; 49	'1'
	.db #0x31	; 49	'1'
	.db #0x31	; 49	'1'
	.db #0x31	; 49	'1'
	.db #0x31	; 49	'1'
	.db #0x31	; 49	'1'
	.db #0x31	; 49	'1'
	.db #0x31	; 49	'1'
	.db #0x31	; 49	'1'
	.db #0x31	; 49	'1'
	.db #0x31	; 49	'1'
	.db #0x31	; 49	'1'
	.db #0x31	; 49	'1'
	.db #0x31	; 49	'1'
	.db #0x31	; 49	'1'
	.db #0x31	; 49	'1'
	.db #0x31	; 49	'1'
	.db #0x31	; 49	'1'
	.db #0x31	; 49	'1'
	.db #0x31	; 49	'1'
	.db #0x31	; 49	'1'
	.db #0x31	; 49	'1'
	.db #0x31	; 49	'1'
	.db #0x31	; 49	'1'
	.db #0x31	; 49	'1'
	.db #0x31	; 49	'1'
	.db #0x31	; 49	'1'
	.db #0x31	; 49	'1'
	.db #0x31	; 49	'1'
	.db #0x31	; 49	'1'
	.db #0x31	; 49	'1'
	.db #0x31	; 49	'1'
	.db #0x31	; 49	'1'
	.db #0x31	; 49	'1'
	.db #0x31	; 49	'1'
	.db #0x31	; 49	'1'
	.db #0x31	; 49	'1'
	.db #0x31	; 49	'1'
	.db #0x31	; 49	'1'
	.db #0x31	; 49	'1'
	.db #0x31	; 49	'1'
	.db #0x31	; 49	'1'
	.db #0x31	; 49	'1'
	.db #0x31	; 49	'1'
	.db #0x31	; 49	'1'
	.db #0x31	; 49	'1'
	.db #0x31	; 49	'1'
	.db #0x31	; 49	'1'
	.db #0x31	; 49	'1'
	.db #0x31	; 49	'1'
	.db #0x31	; 49	'1'
	.db #0x31	; 49	'1'
	.db #0x31	; 49	'1'
	.db #0x31	; 49	'1'
	.db #0x31	; 49	'1'
	.db #0x31	; 49	'1'
	.db #0x31	; 49	'1'
	.db #0x31	; 49	'1'
	.db #0x31	; 49	'1'
	.db #0x31	; 49	'1'
	.db #0x31	; 49	'1'
	.db #0x31	; 49	'1'
	.db #0x31	; 49	'1'
	.db #0x31	; 49	'1'
	.db #0x31	; 49	'1'
	.db #0x31	; 49	'1'
	.db #0x31	; 49	'1'
	.db #0x31	; 49	'1'
	.db #0x31	; 49	'1'
	.db #0x31	; 49	'1'
	.db #0x31	; 49	'1'
	.db #0x31	; 49	'1'
	.db #0x31	; 49	'1'
	.db #0x31	; 49	'1'
	.db #0x31	; 49	'1'
	.db #0x31	; 49	'1'
	.db #0x31	; 49	'1'
	.db #0x31	; 49	'1'
	.db #0x31	; 49	'1'
	.db #0x31	; 49	'1'
	.db #0x31	; 49	'1'
	.db #0x31	; 49	'1'
	.db #0x31	; 49	'1'
	.db #0x31	; 49	'1'
	.db #0x31	; 49	'1'
	.db #0x31	; 49	'1'
	.db #0x31	; 49	'1'
	.db #0x31	; 49	'1'
	.db #0x31	; 49	'1'
	.db #0x31	; 49	'1'
	.db #0x31	; 49	'1'
	.db #0x31	; 49	'1'
	.db #0x31	; 49	'1'
	.db #0x31	; 49	'1'
	.db #0x31	; 49	'1'
	.db #0x31	; 49	'1'
	.db #0x31	; 49	'1'
	.db #0x31	; 49	'1'
	.db #0x31	; 49	'1'
	.db #0x31	; 49	'1'
	.db #0x31	; 49	'1'
	.db #0x31	; 49	'1'
	.db #0x31	; 49	'1'
	.db #0x31	; 49	'1'
	.db #0x31	; 49	'1'
	.db #0x31	; 49	'1'
	.db #0x31	; 49	'1'
	.db #0x31	; 49	'1'
	.db #0x31	; 49	'1'
	.db #0x31	; 49	'1'
	.db #0x31	; 49	'1'
	.db #0x31	; 49	'1'
	.db #0x31	; 49	'1'
	.db #0x31	; 49	'1'
	.db #0x01	; 1
	.db #0x31	; 49	'1'
	.db #0x02	; 2
	.db #0x31	; 49	'1'
	.db #0x03	; 3
	.db #0x31	; 49	'1'
	.db #0x04	; 4
	.db #0x31	; 49	'1'
	.db #0x05	; 5
	.db #0x31	; 49	'1'
	.db #0x06	; 6
	.db #0x31	; 49	'1'
	.db #0x07	; 7
	.db #0x31	; 49	'1'
	.db #0x08	; 8
	.db #0x31	; 49	'1'
	.db #0x09	; 9
	.db #0x31	; 49	'1'
	.db #0x00	; 0
	.db #0x31	; 49	'1'
	.db #0x31	; 49	'1'
	.db #0x31	; 49	'1'
	.db #0x31	; 49	'1'
	.db #0x31	; 49	'1'
	.db #0x31	; 49	'1'
	.db #0x31	; 49	'1'
	.db #0x31	; 49	'1'
	.db #0x31	; 49	'1'
	.db #0x31	; 49	'1'
	.db #0x31	; 49	'1'
	.db #0x31	; 49	'1'
	.db #0x31	; 49	'1'
	.db #0x31	; 49	'1'
	.db #0x31	; 49	'1'
	.db #0x31	; 49	'1'
	.db #0x31	; 49	'1'
	.db #0x31	; 49	'1'
	.db #0x31	; 49	'1'
	.db #0x31	; 49	'1'
	.db #0x31	; 49	'1'
	.db #0x21	; 33
	.db #0x31	; 49	'1'
	.db #0x27	; 39
	.db #0x31	; 49	'1'
	.db #0x15	; 21
	.db #0x31	; 49	'1'
	.db #0x22	; 34
	.db #0x31	; 49	'1'
	.db #0x24	; 36
	.db #0x31	; 49	'1'
	.db #0x29	; 41
	.db #0x31	; 49	'1'
	.db #0x25	; 37
	.db #0x31	; 49	'1'
	.db #0x19	; 25
	.db #0x31	; 49	'1'
	.db #0x1f	; 31
	.db #0x31	; 49	'1'
	.db #0x20	; 32
	.db #0x31	; 49	'1'
	.db #0x31	; 49	'1'
	.db #0x31	; 49	'1'
	.db #0x31	; 49	'1'
	.db #0x31	; 49	'1'
	.db #0x31	; 49	'1'
	.db #0x31	; 49	'1'
	.db #0x31	; 49	'1'
	.db #0x31	; 49	'1'
	.db #0x31	; 49	'1'
	.db #0x31	; 49	'1'
	.db #0x31	; 49	'1'
	.db #0x31	; 49	'1'
	.db #0x31	; 49	'1'
	.db #0x31	; 49	'1'
	.db #0x31	; 49	'1'
	.db #0x31	; 49	'1'
	.db #0x31	; 49	'1'
	.db #0x31	; 49	'1'
	.db #0x31	; 49	'1'
	.db #0x31	; 49	'1'
	.db #0x31	; 49	'1'
	.db #0x11	; 17
	.db #0x31	; 49	'1'
	.db #0x23	; 35
	.db #0x31	; 49	'1'
	.db #0x14	; 20
	.db #0x31	; 49	'1'
	.db #0x16	; 22
	.db #0x31	; 49	'1'
	.db #0x17	; 23
	.db #0x31	; 49	'1'
	.db #0x18	; 24
	.db #0x31	; 49	'1'
	.db #0x1a	; 26
	.db #0x31	; 49	'1'
	.db #0x1b	; 27
	.db #0x31	; 49	'1'
	.db #0x1c	; 28
	.db #0x31	; 49	'1'
	.db #0x31	; 49	'1'
	.db #0x31	; 49	'1'
	.db #0x31	; 49	'1'
	.db #0x31	; 49	'1'
	.db #0x31	; 49	'1'
	.db #0x31	; 49	'1'
	.db #0x31	; 49	'1'
	.db #0x31	; 49	'1'
	.db #0x31	; 49	'1'
	.db #0x31	; 49	'1'
	.db #0x31	; 49	'1'
	.db #0x31	; 49	'1'
	.db #0x31	; 49	'1'
	.db #0x31	; 49	'1'
	.db #0x31	; 49	'1'
	.db #0x31	; 49	'1'
	.db #0x31	; 49	'1'
	.db #0x31	; 49	'1'
	.db #0x31	; 49	'1'
	.db #0x31	; 49	'1'
	.db #0x31	; 49	'1'
	.db #0x31	; 49	'1'
	.db #0x31	; 49	'1'
	.db #0x2a	; 42
	.db #0x31	; 49	'1'
	.db #0x28	; 40
	.db #0x31	; 49	'1'
	.db #0x13	; 19
	.db #0x31	; 49	'1'
	.db #0x26	; 38
	.db #0x31	; 49	'1'
	.db #0x12	; 18
	.db #0x31	; 49	'1'
	.db #0x1e	; 30
	.db #0x31	; 49	'1'
	.db #0x1d	; 29
	.db #0x31	; 49	'1'
	.db #0x2f	; 47
	.db #0x31	; 49	'1'
	.db #0x31	; 49	'1'
	.db #0x31	; 49	'1'
	.db #0x31	; 49	'1'
	.db #0x31	; 49	'1'
	.db #0x31	; 49	'1'
	.db #0x31	; 49	'1'
	.db #0x31	; 49	'1'
	.db #0x31	; 49	'1'
	.db #0x31	; 49	'1'
	.db #0x31	; 49	'1'
	.db #0x31	; 49	'1'
	.db #0x31	; 49	'1'
	.db #0x31	; 49	'1'
	.db #0x31	; 49	'1'
	.db #0x31	; 49	'1'
	.db #0x31	; 49	'1'
	.db #0x31	; 49	'1'
	.db #0x31	; 49	'1'
	.db #0x31	; 49	'1'
	.db #0x31	; 49	'1'
	.db #0x31	; 49	'1'
	.db #0x31	; 49	'1'
__xinit__cursor:
	.dw #0x0000
	.dw #0x0000
__xinit__message:
	.db #0xff	; -1
	.db #0xff	; -1
	.db #0xff	; -1
	.db #0xff	; -1
	.db #0xff	; -1
	.db #0xff	; -1
	.db #0xff	; -1
	.db #0xff	; -1
	.db #0xff	; -1
	.db #0xff	; -1
	.db #0xff	; -1
	.db #0xff	; -1
	.db #0xff	; -1
	.db #0xff	; -1
	.db #0xff	; -1
	.db #0xff	; -1
	.db #0xff	; -1
	.db #0xff	; -1
	.db #0xff	; -1
	.db #0xff	; -1
__xinit__messageLen:
	.dw #0x0000
__xinit__messageLine:
	.dw #0x0002
__xinit__keebArray:
	.db #0x01	;  1
	.db #0x02	;  2
	.db #0x03	;  3
	.db #0x04	;  4
	.db #0x05	;  5
	.db #0x06	;  6
	.db #0x07	;  7
	.db #0x08	;  8
	.db #0x09	;  9
	.db #0x00	;  0
	.db #0x21	;  33
	.db #0x27	;  39
	.db #0x15	;  21
	.db #0x22	;  34
	.db #0x24	;  36
	.db #0x29	;  41
	.db #0x25	;  37
	.db #0x19	;  25
	.db #0x1f	;  31
	.db #0x20	;  32
	.db #0x11	;  17
	.db #0x23	;  35
	.db #0x14	;  20
	.db #0x16	;  22
	.db #0x17	;  23
	.db #0x18	;  24
	.db #0x1a	;  26
	.db #0x1b	;  27
	.db #0x1c	;  28
	.db #0x00	;  0
	.db #0x2a	;  42
	.db #0x28	;  40
	.db #0x13	;  19
	.db #0x26	;  38
	.db #0x12	;  18
	.db #0x1e	;  30
	.db #0x1d	;  29
	.db #0xff	; -1
	.db #0x00	;  0
	.db #0x00	;  0
	.area _CABS (ABS)
